
bin\Debug\embeddedsystem.elf:     file format elf32-avr

Sections:
Idx Name          Size      VMA       LMA       File off  Algn
  0 .data         000002e0  00800100  00001562  00001616  2**0
                  CONTENTS, ALLOC, LOAD, DATA
  1 .text         00001562  00000000  00000000  000000b4  2**1
                  CONTENTS, ALLOC, LOAD, READONLY, CODE
  2 .bss          00000056  008003e0  008003e0  000018f6  2**0
                  ALLOC
  3 .fuse         00000003  00820000  00820000  000018f6  2**0
                  CONTENTS, ALLOC, LOAD, DATA
  4 .debug_aranges 00000020  00000000  00000000  000018f9  2**0
                  CONTENTS, READONLY, DEBUGGING
  5 .debug_pubnames 00000038  00000000  00000000  00001919  2**0
                  CONTENTS, READONLY, DEBUGGING
  6 .debug_info   00001903  00000000  00000000  00001951  2**0
                  CONTENTS, READONLY, DEBUGGING
  7 .debug_abbrev 000003db  00000000  00000000  00003254  2**0
                  CONTENTS, READONLY, DEBUGGING
  8 .debug_line   00000f53  00000000  00000000  0000362f  2**0
                  CONTENTS, READONLY, DEBUGGING
  9 .debug_frame  00000120  00000000  00000000  00004584  2**2
                  CONTENTS, READONLY, DEBUGGING
 10 .debug_str    000003b1  00000000  00000000  000046a4  2**0
                  CONTENTS, READONLY, DEBUGGING
 11 .debug_loc    00000e50  00000000  00000000  00004a55  2**0
                  CONTENTS, READONLY, DEBUGGING
 12 .debug_ranges 000002a0  00000000  00000000  000058a5  2**0
                  CONTENTS, READONLY, DEBUGGING

Disassembly of section .text:

00000000 <__vectors>:
       0:	0c 94 2e 01 	jmp	0x25c	; 0x25c <__ctors_end>
       4:	0c 94 4b 01 	jmp	0x296	; 0x296 <__bad_interrupt>
       8:	0c 94 4b 01 	jmp	0x296	; 0x296 <__bad_interrupt>
       c:	0c 94 4b 01 	jmp	0x296	; 0x296 <__bad_interrupt>
      10:	0c 94 4b 01 	jmp	0x296	; 0x296 <__bad_interrupt>
      14:	0c 94 4b 01 	jmp	0x296	; 0x296 <__bad_interrupt>
      18:	0c 94 4b 01 	jmp	0x296	; 0x296 <__bad_interrupt>
      1c:	0c 94 4b 01 	jmp	0x296	; 0x296 <__bad_interrupt>
      20:	0c 94 4b 01 	jmp	0x296	; 0x296 <__bad_interrupt>
      24:	0c 94 4b 01 	jmp	0x296	; 0x296 <__bad_interrupt>
      28:	0c 94 4b 01 	jmp	0x296	; 0x296 <__bad_interrupt>
      2c:	0c 94 4b 01 	jmp	0x296	; 0x296 <__bad_interrupt>
      30:	0c 94 4b 01 	jmp	0x296	; 0x296 <__bad_interrupt>
      34:	0c 94 4b 01 	jmp	0x296	; 0x296 <__bad_interrupt>
      38:	0c 94 4b 01 	jmp	0x296	; 0x296 <__bad_interrupt>
      3c:	0c 94 4b 01 	jmp	0x296	; 0x296 <__bad_interrupt>
      40:	0c 94 4b 01 	jmp	0x296	; 0x296 <__bad_interrupt>
      44:	0c 94 4b 01 	jmp	0x296	; 0x296 <__bad_interrupt>
      48:	0c 94 4b 01 	jmp	0x296	; 0x296 <__bad_interrupt>
      4c:	0c 94 4b 01 	jmp	0x296	; 0x296 <__bad_interrupt>
      50:	0c 94 4b 01 	jmp	0x296	; 0x296 <__bad_interrupt>
      54:	0c 94 4b 01 	jmp	0x296	; 0x296 <__bad_interrupt>
      58:	0c 94 4b 01 	jmp	0x296	; 0x296 <__bad_interrupt>
      5c:	0c 94 4b 01 	jmp	0x296	; 0x296 <__bad_interrupt>
      60:	0c 94 4b 01 	jmp	0x296	; 0x296 <__bad_interrupt>
      64:	0c 94 4b 01 	jmp	0x296	; 0x296 <__bad_interrupt>

00000068 <seq.1589>:
      68:	ae d5 80 a8 3f d3 00 40 8d 14 20 00 a1 c8 da 12     ....?..@.. .....
      78:	81 cf d9 f1 db 40 a4 a6 af                          .....@...

00000081 <FONT>:
      81:	00 00 00 00 00 00 00 5f 00 00 00 07 00 07 00 14     ......._........
      91:	7f 14 7f 14 24 2a 7f 2a 12 23 13 08 64 62 36 49     ....$*.*.#..db6I
      a1:	55 22 50 00 05 03 00 00 00 1c 22 41 00 00 41 22     U"P......."A..A"
      b1:	1c 00 08 2a 1c 2a 08 08 08 3e 08 08 00 50 30 00     ...*.*...>...P0.
      c1:	00 08 08 08 08 08 00 60 60 00 00 20 10 08 04 02     .......``.. ....
      d1:	3e 51 49 45 3e 00 42 7f 40 00 42 61 51 49 46 21     >QIE>.B.@.BaQIF!
      e1:	41 45 4b 31 18 14 12 7f 10 27 45 45 45 39 3c 4a     AEK1.....'EEE9<J
      f1:	49 49 30 01 71 09 05 03 36 49 49 49 36 06 49 49     II0.q...6III6.II
     101:	29 1e 00 36 36 00 00 00 56 36 00 00 08 14 22 41     )..66...V6...."A
     111:	00 14 14 14 14 14 00 41 22 14 08 02 01 51 09 06     .......A"....Q..
     121:	32 49 79 41 3e 7e 11 11 11 7e 7f 49 49 49 36 3e     2IyA>~...~.III6>
     131:	41 41 41 22 7f 41 41 22 1c 7f 49 49 49 41 7f 09     AAA".AA"..IIIA..
     141:	09 09 01 3e 41 49 49 7a 7f 08 08 08 7f 00 41 7f     ...>AIIz......A.
     151:	41 00 20 40 41 3f 01 7f 08 14 22 41 7f 40 40 40     A. @A?...."A.@@@
     161:	40 7f 02 04 02 7f 7f 04 08 10 7f 3e 41 41 41 3e     @..........>AAA>
     171:	7f 09 09 09 06 3e 41 51 21 5e 7f 09 19 29 46 46     .....>AQ!^...)FF
     181:	49 49 49 31 01 01 7f 01 01 3f 40 40 40 3f 1f 20     III1.....?@@@?. 
     191:	40 20 1f 3f 40 38 40 3f 63 14 08 14 63 07 08 70     @ .?@8@?c...c..p
     1a1:	08 07 61 51 49 45 43 00 7f 41 41 00 02 04 08 10     ..aQIEC..AA.....
     1b1:	20 00 41 41 7f 00 04 02 01 02 04 40 40 40 40 40      .AA.......@@@@@
     1c1:	00 01 02 04 00 20 54 54 54 78 7f 48 44 44 38 38     ..... TTTx.HDD88
     1d1:	44 44 44 20 38 44 44 48 7f 38 54 54 54 18 08 7e     DDD 8DDH.8TTT..~
     1e1:	09 01 02 0c 52 52 52 3e 7f 08 04 04 78 00 44 7d     ....RRR>....x.D}
     1f1:	40 00 20 40 44 3d 00 7f 10 28 44 00 00 41 7f 40     @. @D=...(D..A.@
     201:	00 7c 04 18 04 78 7c 08 04 04 78 38 44 44 44 38     .|...x|...x8DDD8
     211:	7c 14 14 14 08 08 14 14 18 7c 7c 08 04 04 08 48     |........||....H
     221:	54 54 54 20 04 3f 44 40 20 3c 40 40 20 7c 1c 20     TTT .?D@ <@@ |. 
     231:	40 20 1c 3c 40 30 40 3c 44 28 10 28 44 0c 50 50     @ .<@0@<D(.(D.PP
     241:	50 3c 44 64 54 4c 44 00 08 36 41 00 00 00 7f 00     P<DdTLD..6A.....
     251:	00 00 41 36 08 00 08 08 2a 1c 08                    ..A6....*..

0000025c <__ctors_end>:
     25c:	11 24       	eor	r1, r1
     25e:	1f be       	out	0x3f, r1	; 63
     260:	cf ef       	ldi	r28, 0xFF	; 255
     262:	d8 e0       	ldi	r29, 0x08	; 8
     264:	de bf       	out	0x3e, r29	; 62
     266:	cd bf       	out	0x3d, r28	; 61

00000268 <__do_copy_data>:
     268:	13 e0       	ldi	r17, 0x03	; 3
     26a:	a0 e0       	ldi	r26, 0x00	; 0
     26c:	b1 e0       	ldi	r27, 0x01	; 1
     26e:	e2 e6       	ldi	r30, 0x62	; 98
     270:	f5 e1       	ldi	r31, 0x15	; 21
     272:	02 c0       	rjmp	.+4      	; 0x278 <.do_copy_data_start>

00000274 <.do_copy_data_loop>:
     274:	05 90       	lpm	r0, Z+
     276:	0d 92       	st	X+, r0

00000278 <.do_copy_data_start>:
     278:	a0 3e       	cpi	r26, 0xE0	; 224
     27a:	b1 07       	cpc	r27, r17
     27c:	d9 f7       	brne	.-10     	; 0x274 <.do_copy_data_loop>

0000027e <__do_clear_bss>:
     27e:	14 e0       	ldi	r17, 0x04	; 4
     280:	a0 ee       	ldi	r26, 0xE0	; 224
     282:	b3 e0       	ldi	r27, 0x03	; 3
     284:	01 c0       	rjmp	.+2      	; 0x288 <.do_clear_bss_start>

00000286 <.do_clear_bss_loop>:
     286:	1d 92       	st	X+, r1

00000288 <.do_clear_bss_start>:
     288:	a6 33       	cpi	r26, 0x36	; 54
     28a:	b1 07       	cpc	r27, r17
     28c:	e1 f7       	brne	.-8      	; 0x286 <.do_clear_bss_loop>
     28e:	0e 94 97 03 	call	0x72e	; 0x72e <main>
     292:	0c 94 af 0a 	jmp	0x155e	; 0x155e <_exit>

00000296 <__bad_interrupt>:
     296:	0c 94 00 00 	jmp	0	; 0x0 <__vectors>

0000029a <i2c_start>:
    TWCR  = (1 << TWEN);
}

static uint8_t i2c_start(void)
{
    TWCR = (1 << TWINT) | (1 << TWSTA) | (1 << TWEN);
     29a:	84 ea       	ldi	r24, 0xA4	; 164
     29c:	80 93 bc 00 	sts	0x00BC, r24
    while (!(TWCR & (1 << TWINT)));
     2a0:	80 91 bc 00 	lds	r24, 0x00BC
     2a4:	87 ff       	sbrs	r24, 7
     2a6:	fc cf       	rjmp	.-8      	; 0x2a0 <i2c_start+0x6>
    uint8_t s = TWSR & 0xF8;
     2a8:	20 91 b9 00 	lds	r18, 0x00B9
     2ac:	28 7f       	andi	r18, 0xF8	; 248
    return (s == 0x08 || s == 0x10);   /* START or REP_START */
     2ae:	28 30       	cpi	r18, 0x08	; 8
     2b0:	19 f4       	brne	.+6      	; 0x2b8 <i2c_start+0x1e>
     2b2:	81 e0       	ldi	r24, 0x01	; 1
     2b4:	90 e0       	ldi	r25, 0x00	; 0
     2b6:	08 95       	ret
     2b8:	80 e0       	ldi	r24, 0x00	; 0
     2ba:	90 e0       	ldi	r25, 0x00	; 0
     2bc:	20 31       	cpi	r18, 0x10	; 16
     2be:	11 f4       	brne	.+4      	; 0x2c4 <i2c_start+0x2a>
     2c0:	81 e0       	ldi	r24, 0x01	; 1
     2c2:	90 e0       	ldi	r25, 0x00	; 0
}
     2c4:	08 95       	ret

000002c6 <i2c_write>:
    TWCR = (1 << TWINT) | (1 << TWSTO) | (1 << TWEN);
}

static uint8_t i2c_write(uint8_t data)
{
    TWDR = data;
     2c6:	80 93 bb 00 	sts	0x00BB, r24
    TWCR = (1 << TWINT) | (1 << TWEN);
     2ca:	84 e8       	ldi	r24, 0x84	; 132
     2cc:	80 93 bc 00 	sts	0x00BC, r24
    while (!(TWCR & (1 << TWINT)));
     2d0:	80 91 bc 00 	lds	r24, 0x00BC
     2d4:	87 ff       	sbrs	r24, 7
     2d6:	fc cf       	rjmp	.-8      	; 0x2d0 <i2c_write+0xa>
    uint8_t s = TWSR & 0xF8;
     2d8:	20 91 b9 00 	lds	r18, 0x00B9
     2dc:	28 7f       	andi	r18, 0xF8	; 248
    return (s == 0x18 || s == 0x28);   /* SLA+W ACK or DATA ACK */
     2de:	28 31       	cpi	r18, 0x18	; 24
     2e0:	19 f4       	brne	.+6      	; 0x2e8 <i2c_write+0x22>
     2e2:	81 e0       	ldi	r24, 0x01	; 1
     2e4:	90 e0       	ldi	r25, 0x00	; 0
     2e6:	08 95       	ret
     2e8:	80 e0       	ldi	r24, 0x00	; 0
     2ea:	90 e0       	ldi	r25, 0x00	; 0
     2ec:	28 32       	cpi	r18, 0x28	; 40
     2ee:	11 f4       	brne	.+4      	; 0x2f4 <i2c_write+0x2e>
     2f0:	81 e0       	ldi	r24, 0x01	; 1
     2f2:	90 e0       	ldi	r25, 0x00	; 0
}
     2f4:	08 95       	ret

000002f6 <oled_cmd>:
#define OLED_W  0x78    /* (0x3C << 1) | 0 */
#define SCR_W   128
#define SCR_PG  8

static void oled_cmd(uint8_t c)
{
     2f6:	1f 93       	push	r17
     2f8:	18 2f       	mov	r17, r24
    i2c_start(); i2c_write(OLED_W); i2c_write(0x00); i2c_write(c); i2c_stop();
     2fa:	0e 94 4d 01 	call	0x29a	; 0x29a <i2c_start>
     2fe:	88 e7       	ldi	r24, 0x78	; 120
     300:	0e 94 63 01 	call	0x2c6	; 0x2c6 <i2c_write>
     304:	80 e0       	ldi	r24, 0x00	; 0
     306:	0e 94 63 01 	call	0x2c6	; 0x2c6 <i2c_write>
     30a:	81 2f       	mov	r24, r17
     30c:	0e 94 63 01 	call	0x2c6	; 0x2c6 <i2c_write>
    return (s == 0x08 || s == 0x10);   /* START or REP_START */
}

static void i2c_stop(void)
{
    TWCR = (1 << TWINT) | (1 << TWSTO) | (1 << TWEN);
     310:	84 e9       	ldi	r24, 0x94	; 148
     312:	80 93 bc 00 	sts	0x00BC, r24
#define SCR_PG  8

static void oled_cmd(uint8_t c)
{
    i2c_start(); i2c_write(OLED_W); i2c_write(0x00); i2c_write(c); i2c_stop();
}
     316:	1f 91       	pop	r17
     318:	08 95       	ret

0000031a <oled_dat>:

static void oled_dat(uint8_t d)
{
     31a:	1f 93       	push	r17
     31c:	18 2f       	mov	r17, r24
    i2c_start(); i2c_write(OLED_W); i2c_write(0x40); i2c_write(d); i2c_stop();
     31e:	0e 94 4d 01 	call	0x29a	; 0x29a <i2c_start>
     322:	88 e7       	ldi	r24, 0x78	; 120
     324:	0e 94 63 01 	call	0x2c6	; 0x2c6 <i2c_write>
     328:	80 e4       	ldi	r24, 0x40	; 64
     32a:	0e 94 63 01 	call	0x2c6	; 0x2c6 <i2c_write>
     32e:	81 2f       	mov	r24, r17
     330:	0e 94 63 01 	call	0x2c6	; 0x2c6 <i2c_write>
    return (s == 0x08 || s == 0x10);   /* START or REP_START */
}

static void i2c_stop(void)
{
    TWCR = (1 << TWINT) | (1 << TWSTO) | (1 << TWEN);
     334:	84 e9       	ldi	r24, 0x94	; 148
     336:	80 93 bc 00 	sts	0x00BC, r24
}

static void oled_dat(uint8_t d)
{
    i2c_start(); i2c_write(OLED_W); i2c_write(0x40); i2c_write(d); i2c_stop();
}
     33a:	1f 91       	pop	r17
     33c:	08 95       	ret

0000033e <oled_pos>:
    uint8_t i;
    for (i = 0; i < sizeof(seq); i++) oled_cmd(pgm_read_byte(&seq[i]));
}

static void oled_pos(uint8_t page, uint8_t col)
{
     33e:	1f 93       	push	r17
     340:	16 2f       	mov	r17, r22
    oled_cmd((uint8_t)(0xB0 | (page & 0x07)));
     342:	87 70       	andi	r24, 0x07	; 7
     344:	80 6b       	ori	r24, 0xB0	; 176
     346:	0e 94 7b 01 	call	0x2f6	; 0x2f6 <oled_cmd>
    oled_cmd((uint8_t)(0x00 | (col  & 0x0F)));
     34a:	81 2f       	mov	r24, r17
     34c:	8f 70       	andi	r24, 0x0F	; 15
     34e:	0e 94 7b 01 	call	0x2f6	; 0x2f6 <oled_cmd>
    oled_cmd((uint8_t)(0x10 | (col  >> 4)));
     352:	12 95       	swap	r17
     354:	1f 70       	andi	r17, 0x0F	; 15
     356:	81 2f       	mov	r24, r17
     358:	80 61       	ori	r24, 0x10	; 16
     35a:	0e 94 7b 01 	call	0x2f6	; 0x2f6 <oled_cmd>
}
     35e:	1f 91       	pop	r17
     360:	08 95       	ret

00000362 <oled_clear>:

static void oled_clear(void)
{
     362:	0f 93       	push	r16
     364:	1f 93       	push	r17
     366:	00 e0       	ldi	r16, 0x00	; 0
    uint8_t p, c;
    for (p = 0; p < SCR_PG; p++) {
        oled_pos(p, 0);
     368:	80 2f       	mov	r24, r16
     36a:	60 e0       	ldi	r22, 0x00	; 0
     36c:	0e 94 9f 01 	call	0x33e	; 0x33e <oled_pos>
     370:	10 e0       	ldi	r17, 0x00	; 0
        for (c = 0; c < SCR_W; c++) oled_dat(0x00);
     372:	80 e0       	ldi	r24, 0x00	; 0
     374:	0e 94 8d 01 	call	0x31a	; 0x31a <oled_dat>
     378:	1f 5f       	subi	r17, 0xFF	; 255
     37a:	10 38       	cpi	r17, 0x80	; 128
     37c:	d1 f7       	brne	.-12     	; 0x372 <oled_clear+0x10>
}

static void oled_clear(void)
{
    uint8_t p, c;
    for (p = 0; p < SCR_PG; p++) {
     37e:	0f 5f       	subi	r16, 0xFF	; 255
     380:	08 30       	cpi	r16, 0x08	; 8
     382:	91 f7       	brne	.-28     	; 0x368 <oled_clear+0x6>
        oled_pos(p, 0);
        for (c = 0; c < SCR_W; c++) oled_dat(0x00);
    }
}
     384:	1f 91       	pop	r17
     386:	0f 91       	pop	r16
     388:	08 95       	ret

0000038a <oled_row>:

static void oled_row(uint8_t page, uint8_t pat)
{
     38a:	0f 93       	push	r16
     38c:	1f 93       	push	r17
     38e:	06 2f       	mov	r16, r22
    uint8_t c;
    oled_pos(page, 0);
     390:	60 e0       	ldi	r22, 0x00	; 0
     392:	0e 94 9f 01 	call	0x33e	; 0x33e <oled_pos>
     396:	10 e0       	ldi	r17, 0x00	; 0
    for (c = 0; c < SCR_W; c++) oled_dat(pat);
     398:	80 2f       	mov	r24, r16
     39a:	0e 94 8d 01 	call	0x31a	; 0x31a <oled_dat>
     39e:	1f 5f       	subi	r17, 0xFF	; 255
     3a0:	10 38       	cpi	r17, 0x80	; 128
     3a2:	d1 f7       	brne	.-12     	; 0x398 <oled_row+0xe>
}
     3a4:	1f 91       	pop	r17
     3a6:	0f 91       	pop	r16
     3a8:	08 95       	ret

000003aa <oled_clr_row>:

static void oled_clr_row(uint8_t page) { oled_row(page, 0x00); }
     3aa:	60 e0       	ldi	r22, 0x00	; 0
     3ac:	0e 94 c5 01 	call	0x38a	; 0x38a <oled_row>
     3b0:	08 95       	ret

000003b2 <oled_ch>:
/*
 * oled_char_at: write one 5×7 character (6 px wide with 1 px gap).
 * Returns next column position.
 */
static uint8_t oled_ch(uint8_t page, uint8_t col, char c)
{
     3b2:	ff 92       	push	r15
     3b4:	0f 93       	push	r16
     3b6:	1f 93       	push	r17
     3b8:	cf 93       	push	r28
     3ba:	df 93       	push	r29
     3bc:	98 2f       	mov	r25, r24
     3be:	f6 2e       	mov	r15, r22
     3c0:	14 2f       	mov	r17, r20
    uint8_t i;
    if (c < 0x20 || c > 0x7E) c = ' ';
     3c2:	84 2f       	mov	r24, r20
     3c4:	80 52       	subi	r24, 0x20	; 32
     3c6:	8f 35       	cpi	r24, 0x5F	; 95
     3c8:	08 f0       	brcs	.+2      	; 0x3cc <oled_ch+0x1a>
     3ca:	10 e2       	ldi	r17, 0x20	; 32
    oled_pos(page, col);
     3cc:	89 2f       	mov	r24, r25
     3ce:	6f 2d       	mov	r22, r15
     3d0:	0e 94 9f 01 	call	0x33e	; 0x33e <oled_pos>
    for (i = 0; i < 5; i++)
        oled_dat(pgm_read_byte(&FONT[c - 0x20][i]));
     3d4:	85 e0       	ldi	r24, 0x05	; 5
     3d6:	18 02       	muls	r17, r24
     3d8:	c0 01       	movw	r24, r0
     3da:	11 24       	eor	r1, r1
     3dc:	ec 01       	movw	r28, r24
     3de:	cf 51       	subi	r28, 0x1F	; 31
     3e0:	d0 40       	sbci	r29, 0x00	; 0
static uint8_t oled_ch(uint8_t page, uint8_t col, char c)
{
    uint8_t i;
    if (c < 0x20 || c > 0x7E) c = ' ';
    oled_pos(page, col);
    for (i = 0; i < 5; i++)
     3e2:	8c 01       	movw	r16, r24
     3e4:	0b 59       	subi	r16, 0x9B	; 155
     3e6:	10 40       	sbci	r17, 0x00	; 0
     3e8:	0f 57       	subi	r16, 0x7F	; 127
     3ea:	1f 4f       	sbci	r17, 0xFF	; 255
        oled_dat(pgm_read_byte(&FONT[c - 0x20][i]));
     3ec:	fe 01       	movw	r30, r28
     3ee:	84 91       	lpm	r24, Z+
     3f0:	0e 94 8d 01 	call	0x31a	; 0x31a <oled_dat>
     3f4:	21 96       	adiw	r28, 0x01	; 1
static uint8_t oled_ch(uint8_t page, uint8_t col, char c)
{
    uint8_t i;
    if (c < 0x20 || c > 0x7E) c = ' ';
    oled_pos(page, col);
    for (i = 0; i < 5; i++)
     3f6:	c0 17       	cp	r28, r16
     3f8:	d1 07       	cpc	r29, r17
     3fa:	c1 f7       	brne	.-16     	; 0x3ec <oled_ch+0x3a>
        oled_dat(pgm_read_byte(&FONT[c - 0x20][i]));
    oled_dat(0x00);
     3fc:	80 e0       	ldi	r24, 0x00	; 0
     3fe:	0e 94 8d 01 	call	0x31a	; 0x31a <oled_dat>
    return (uint8_t)(col + 6);
}
     402:	8f 2d       	mov	r24, r15
     404:	8a 5f       	subi	r24, 0xFA	; 250
     406:	df 91       	pop	r29
     408:	cf 91       	pop	r28
     40a:	1f 91       	pop	r17
     40c:	0f 91       	pop	r16
     40e:	ff 90       	pop	r15
     410:	08 95       	ret

00000412 <oled_str>:

static void oled_str(uint8_t page, uint8_t col, const char *s)
{
     412:	1f 93       	push	r17
     414:	cf 93       	push	r28
     416:	df 93       	push	r29
     418:	18 2f       	mov	r17, r24
     41a:	ea 01       	movw	r28, r20
     41c:	05 c0       	rjmp	.+10     	; 0x428 <oled_str+0x16>
    while (*s && col < SCR_W)
        col = oled_ch(page, col, *s++);
     41e:	21 96       	adiw	r28, 0x01	; 1
     420:	81 2f       	mov	r24, r17
     422:	0e 94 d9 01 	call	0x3b2	; 0x3b2 <oled_ch>
     426:	68 2f       	mov	r22, r24
    return (uint8_t)(col + 6);
}

static void oled_str(uint8_t page, uint8_t col, const char *s)
{
    while (*s && col < SCR_W)
     428:	48 81       	ld	r20, Y
     42a:	44 23       	and	r20, r20
     42c:	11 f0       	breq	.+4      	; 0x432 <oled_str+0x20>
     42e:	67 ff       	sbrs	r22, 7
     430:	f6 cf       	rjmp	.-20     	; 0x41e <oled_str+0xc>
        col = oled_ch(page, col, *s++);
}
     432:	df 91       	pop	r29
     434:	cf 91       	pop	r28
     436:	1f 91       	pop	r17
     438:	08 95       	ret

0000043a <fmt1>:
 *  §5  NUMBER FORMATTING
 * ============================================================================ */

/* Convert ×10 fixed-point to "XX.X" null-terminated string. */
static void fmt1(char *buf, int16_t v)
{
     43a:	0f 93       	push	r16
     43c:	1f 93       	push	r17
     43e:	cf 93       	push	r28
     440:	df 93       	push	r29
     442:	ec 01       	movw	r28, r24
     444:	8b 01       	movw	r16, r22
    uint8_t i = 0;
    if (v < 0) { buf[i++] = '-'; v = (int16_t)(-v); }
     446:	77 fd       	sbrc	r23, 7
     448:	02 c0       	rjmp	.+4      	; 0x44e <fmt1+0x14>
     44a:	40 e0       	ldi	r20, 0x00	; 0
     44c:	06 c0       	rjmp	.+12     	; 0x45a <fmt1+0x20>
     44e:	8d e2       	ldi	r24, 0x2D	; 45
     450:	88 83       	st	Y, r24
     452:	10 95       	com	r17
     454:	01 95       	neg	r16
     456:	1f 4f       	sbci	r17, 0xFF	; 255
     458:	41 e0       	ldi	r20, 0x01	; 1
    uint16_t w = (uint16_t)(v / 10);
     45a:	c8 01       	movw	r24, r16
     45c:	6a e0       	ldi	r22, 0x0A	; 10
     45e:	70 e0       	ldi	r23, 0x00	; 0
     460:	0e 94 4d 0a 	call	0x149a	; 0x149a <__divmodhi4>
     464:	9b 01       	movw	r18, r22
    uint8_t  f = (uint8_t)(v % 10);
    if (w >= 100) buf[i++] = (char)('0' + w / 100);
     466:	64 36       	cpi	r22, 0x64	; 100
     468:	71 05       	cpc	r23, r1
     46a:	60 f0       	brcs	.+24     	; 0x484 <fmt1+0x4a>
     46c:	fe 01       	movw	r30, r28
     46e:	e4 0f       	add	r30, r20
     470:	f1 1d       	adc	r31, r1
     472:	cb 01       	movw	r24, r22
     474:	64 e6       	ldi	r22, 0x64	; 100
     476:	70 e0       	ldi	r23, 0x00	; 0
     478:	0e 94 39 0a 	call	0x1472	; 0x1472 <__udivmodhi4>
     47c:	60 5d       	subi	r22, 0xD0	; 208
     47e:	60 83       	st	Z, r22
     480:	4f 5f       	subi	r20, 0xFF	; 255
     482:	03 c0       	rjmp	.+6      	; 0x48a <fmt1+0x50>
    if (w >=  10) buf[i++] = (char)('0' + (w / 10) % 10);
     484:	6a 30       	cpi	r22, 0x0A	; 10
     486:	71 05       	cpc	r23, r1
     488:	80 f0       	brcs	.+32     	; 0x4aa <fmt1+0x70>
     48a:	fe 01       	movw	r30, r28
     48c:	e4 0f       	add	r30, r20
     48e:	f1 1d       	adc	r31, r1
     490:	c9 01       	movw	r24, r18
     492:	6a e0       	ldi	r22, 0x0A	; 10
     494:	70 e0       	ldi	r23, 0x00	; 0
     496:	0e 94 39 0a 	call	0x1472	; 0x1472 <__udivmodhi4>
     49a:	cb 01       	movw	r24, r22
     49c:	6a e0       	ldi	r22, 0x0A	; 10
     49e:	70 e0       	ldi	r23, 0x00	; 0
     4a0:	0e 94 39 0a 	call	0x1472	; 0x1472 <__udivmodhi4>
     4a4:	80 5d       	subi	r24, 0xD0	; 208
     4a6:	80 83       	st	Z, r24
     4a8:	4f 5f       	subi	r20, 0xFF	; 255
    buf[i++] = (char)('0' + w % 10);
     4aa:	fe 01       	movw	r30, r28
     4ac:	e4 0f       	add	r30, r20
     4ae:	f1 1d       	adc	r31, r1
     4b0:	c9 01       	movw	r24, r18
     4b2:	6a e0       	ldi	r22, 0x0A	; 10
     4b4:	70 e0       	ldi	r23, 0x00	; 0
     4b6:	0e 94 39 0a 	call	0x1472	; 0x1472 <__udivmodhi4>
     4ba:	80 5d       	subi	r24, 0xD0	; 208
     4bc:	80 83       	st	Z, r24
     4be:	24 2f       	mov	r18, r20
     4c0:	2f 5f       	subi	r18, 0xFF	; 255
    buf[i++] = '.';
     4c2:	fe 01       	movw	r30, r28
     4c4:	e2 0f       	add	r30, r18
     4c6:	f1 1d       	adc	r31, r1
     4c8:	8e e2       	ldi	r24, 0x2E	; 46
     4ca:	80 83       	st	Z, r24
     4cc:	2f 5f       	subi	r18, 0xFF	; 255
    buf[i++] = (char)('0' + f);
     4ce:	fe 01       	movw	r30, r28
     4d0:	e2 0f       	add	r30, r18
     4d2:	f1 1d       	adc	r31, r1
     4d4:	c8 01       	movw	r24, r16
     4d6:	6a e0       	ldi	r22, 0x0A	; 10
     4d8:	70 e0       	ldi	r23, 0x00	; 0
     4da:	0e 94 4d 0a 	call	0x149a	; 0x149a <__divmodhi4>
     4de:	80 5d       	subi	r24, 0xD0	; 208
     4e0:	80 83       	st	Z, r24
    buf[i]   = '\0';
     4e2:	2f 5f       	subi	r18, 0xFF	; 255
     4e4:	c2 0f       	add	r28, r18
     4e6:	d1 1d       	adc	r29, r1
     4e8:	18 82       	st	Y, r1
}
     4ea:	df 91       	pop	r29
     4ec:	cf 91       	pop	r28
     4ee:	1f 91       	pop	r17
     4f0:	0f 91       	pop	r16
     4f2:	08 95       	ret

000004f4 <gmap>:
    if (gc < GLEN) gc++;
}

/* Map value to pixel row 0–39 (0=top, 39=bottom) */
static uint8_t gmap(int32_t v, int32_t lo, int32_t hi)
{
     4f4:	af 92       	push	r10
     4f6:	bf 92       	push	r11
     4f8:	cf 92       	push	r12
     4fa:	df 92       	push	r13
     4fc:	ef 92       	push	r14
     4fe:	ff 92       	push	r15
     500:	0f 93       	push	r16
     502:	1f 93       	push	r17
     504:	59 01       	movw	r10, r18
     506:	6a 01       	movw	r12, r20
    if (v <= lo) return 39;
     508:	26 17       	cp	r18, r22
     50a:	37 07       	cpc	r19, r23
     50c:	48 07       	cpc	r20, r24
     50e:	59 07       	cpc	r21, r25
     510:	14 f0       	brlt	.+4      	; 0x516 <gmap+0x22>
     512:	27 e2       	ldi	r18, 0x27	; 39
     514:	1a c0       	rjmp	.+52     	; 0x54a <gmap+0x56>
    if (v >= hi) return  0;
     516:	6e 15       	cp	r22, r14
     518:	7f 05       	cpc	r23, r15
     51a:	80 07       	cpc	r24, r16
     51c:	91 07       	cpc	r25, r17
     51e:	14 f0       	brlt	.+4      	; 0x524 <gmap+0x30>
     520:	20 e0       	ldi	r18, 0x00	; 0
     522:	13 c0       	rjmp	.+38     	; 0x54a <gmap+0x56>
    return (uint8_t)(39L - ((v - lo) * 39L / (hi - lo)));
     524:	62 1b       	sub	r22, r18
     526:	73 0b       	sbc	r23, r19
     528:	84 0b       	sbc	r24, r20
     52a:	95 0b       	sbc	r25, r21
     52c:	27 e2       	ldi	r18, 0x27	; 39
     52e:	30 e0       	ldi	r19, 0x00	; 0
     530:	40 e0       	ldi	r20, 0x00	; 0
     532:	50 e0       	ldi	r21, 0x00	; 0
     534:	0e 94 0e 0a 	call	0x141c	; 0x141c <__mulsi3>
     538:	ae 18       	sub	r10, r14
     53a:	bf 08       	sbc	r11, r15
     53c:	c0 0a       	sbc	r12, r16
     53e:	d1 0a       	sbc	r13, r17
     540:	a6 01       	movw	r20, r12
     542:	95 01       	movw	r18, r10
     544:	0e 94 60 0a 	call	0x14c0	; 0x14c0 <__divmodsi4>
     548:	29 5d       	subi	r18, 0xD9	; 217
}
     54a:	82 2f       	mov	r24, r18
     54c:	1f 91       	pop	r17
     54e:	0f 91       	pop	r16
     550:	ff 90       	pop	r15
     552:	ef 90       	pop	r14
     554:	df 90       	pop	r13
     556:	cf 90       	pop	r12
     558:	bf 90       	pop	r11
     55a:	af 90       	pop	r10
     55c:	08 95       	ret

0000055e <gbar>:
 * gbar: draw a filled bar from top_row to row 39 at column col.
 * Uses page-level bitmask accumulation to avoid the pixel-overwrite bug
 * (multiple rows in the same OLED page-band must be ORed into one byte).
 */
static void gbar(uint8_t col, uint8_t top_row)
{
     55e:	af 92       	push	r10
     560:	bf 92       	push	r11
     562:	cf 92       	push	r12
     564:	df 92       	push	r13
     566:	ef 92       	push	r14
     568:	ff 92       	push	r15
     56a:	0f 93       	push	r16
     56c:	1f 93       	push	r17
     56e:	cf 93       	push	r28
     570:	df 93       	push	r29
     572:	c8 2e       	mov	r12, r24
     574:	d6 2e       	mov	r13, r22
     576:	c7 e0       	ldi	r28, 0x07	; 7
     578:	d0 e0       	ldi	r29, 0x00	; 0
     57a:	02 e0       	ldi	r16, 0x02	; 2
    uint8_t pg;
    for (pg = 0; pg < 5; pg++) {
        uint8_t pfirst = (uint8_t)(pg * 8);
        if (top_row > pfirst + 7) continue;
     57c:	e6 2e       	mov	r14, r22
     57e:	ff 24       	eor	r15, r15
        uint8_t mask = 0x00, r;
        for (r = 0; r < 8; r++) {
            uint8_t pr = pfirst + r;
            if (pr >= top_row && pr <= 39)
                mask |= (uint8_t)(0x80 >> r);
     580:	80 e8       	ldi	r24, 0x80	; 128
     582:	a8 2e       	mov	r10, r24
     584:	b1 2c       	mov	r11, r1
static void gbar(uint8_t col, uint8_t top_row)
{
    uint8_t pg;
    for (pg = 0; pg < 5; pg++) {
        uint8_t pfirst = (uint8_t)(pg * 8);
        if (top_row > pfirst + 7) continue;
     586:	ce 15       	cp	r28, r14
     588:	df 05       	cpc	r29, r15
     58a:	04 f1       	brlt	.+64     	; 0x5cc <gbar+0x6e>
     58c:	10 e0       	ldi	r17, 0x00	; 0
     58e:	20 e0       	ldi	r18, 0x00	; 0
     590:	30 e0       	ldi	r19, 0x00	; 0
        uint8_t mask = 0x00, r;
        for (r = 0; r < 8; r++) {
            uint8_t pr = pfirst + r;
            if (pr >= top_row && pr <= 39)
     592:	ce 01       	movw	r24, r28
     594:	87 50       	subi	r24, 0x07	; 7
     596:	48 2f       	mov	r20, r24
     598:	84 2f       	mov	r24, r20
     59a:	82 0f       	add	r24, r18
     59c:	8d 15       	cp	r24, r13
     59e:	40 f0       	brcs	.+16     	; 0x5b0 <gbar+0x52>
                mask |= (uint8_t)(0x80 >> r);
     5a0:	c5 01       	movw	r24, r10
     5a2:	02 2e       	mov	r0, r18
     5a4:	02 c0       	rjmp	.+4      	; 0x5aa <gbar+0x4c>
     5a6:	95 95       	asr	r25
     5a8:	87 95       	ror	r24
     5aa:	0a 94       	dec	r0
     5ac:	e2 f7       	brpl	.-8      	; 0x5a6 <gbar+0x48>
     5ae:	18 2b       	or	r17, r24
     5b0:	2f 5f       	subi	r18, 0xFF	; 255
     5b2:	3f 4f       	sbci	r19, 0xFF	; 255
    uint8_t pg;
    for (pg = 0; pg < 5; pg++) {
        uint8_t pfirst = (uint8_t)(pg * 8);
        if (top_row > pfirst + 7) continue;
        uint8_t mask = 0x00, r;
        for (r = 0; r < 8; r++) {
     5b4:	28 30       	cpi	r18, 0x08	; 8
     5b6:	31 05       	cpc	r19, r1
     5b8:	79 f7       	brne	.-34     	; 0x598 <gbar+0x3a>
            uint8_t pr = pfirst + r;
            if (pr >= top_row && pr <= 39)
                mask |= (uint8_t)(0x80 >> r);
        }
        if (mask) { oled_pos((uint8_t)(2 + pg), col); oled_dat(mask); }
     5ba:	11 23       	and	r17, r17
     5bc:	39 f0       	breq	.+14     	; 0x5cc <gbar+0x6e>
     5be:	80 2f       	mov	r24, r16
     5c0:	6c 2d       	mov	r22, r12
     5c2:	0e 94 9f 01 	call	0x33e	; 0x33e <oled_pos>
     5c6:	81 2f       	mov	r24, r17
     5c8:	0e 94 8d 01 	call	0x31a	; 0x31a <oled_dat>
     5cc:	28 96       	adiw	r28, 0x08	; 8
     5ce:	0f 5f       	subi	r16, 0xFF	; 255
 * (multiple rows in the same OLED page-band must be ORed into one byte).
 */
static void gbar(uint8_t col, uint8_t top_row)
{
    uint8_t pg;
    for (pg = 0; pg < 5; pg++) {
     5d0:	07 30       	cpi	r16, 0x07	; 7
     5d2:	c9 f6       	brne	.-78     	; 0x586 <gbar+0x28>
            if (pr >= top_row && pr <= 39)
                mask |= (uint8_t)(0x80 >> r);
        }
        if (mask) { oled_pos((uint8_t)(2 + pg), col); oled_dat(mask); }
    }
}
     5d4:	df 91       	pop	r29
     5d6:	cf 91       	pop	r28
     5d8:	1f 91       	pop	r17
     5da:	0f 91       	pop	r16
     5dc:	ff 90       	pop	r15
     5de:	ef 90       	pop	r14
     5e0:	df 90       	pop	r13
     5e2:	cf 90       	pop	r12
     5e4:	bf 90       	pop	r11
     5e6:	af 90       	pop	r10
     5e8:	08 95       	ret

000005ea <gdot>:

/* Single dot at (col, row) within the 40-px graph area */
static void gdot(uint8_t col, uint8_t row)
{
     5ea:	1f 93       	push	r17
     5ec:	98 2f       	mov	r25, r24
     5ee:	16 2f       	mov	r17, r22
    if (row > 39) return;
     5f0:	68 32       	cpi	r22, 0x28	; 40
     5f2:	90 f4       	brcc	.+36     	; 0x618 <gdot+0x2e>
    oled_pos((uint8_t)(2 + row / 8), col);
     5f4:	86 2f       	mov	r24, r22
     5f6:	86 95       	lsr	r24
     5f8:	86 95       	lsr	r24
     5fa:	86 95       	lsr	r24
     5fc:	8e 5f       	subi	r24, 0xFE	; 254
     5fe:	69 2f       	mov	r22, r25
     600:	0e 94 9f 01 	call	0x33e	; 0x33e <oled_pos>
    oled_dat((uint8_t)(0x80 >> (row % 8)));
     604:	17 70       	andi	r17, 0x07	; 7
     606:	80 e8       	ldi	r24, 0x80	; 128
     608:	90 e0       	ldi	r25, 0x00	; 0
     60a:	02 c0       	rjmp	.+4      	; 0x610 <gdot+0x26>
     60c:	95 95       	asr	r25
     60e:	87 95       	ror	r24
     610:	1a 95       	dec	r17
     612:	e2 f7       	brpl	.-8      	; 0x60c <gdot+0x22>
     614:	0e 94 8d 01 	call	0x31a	; 0x31a <oled_dat>
}
     618:	1f 91       	pop	r17
     61a:	08 95       	ret

0000061c <slide_in_line>:
 * target_col — final resting column
 * text       — string to display
 * Returns 1 if button pressed.
 */
static uint8_t slide_in_line(uint8_t page, uint8_t target_col, const char *text)
{
     61c:	6f 92       	push	r6
     61e:	7f 92       	push	r7
     620:	8f 92       	push	r8
     622:	9f 92       	push	r9
     624:	af 92       	push	r10
     626:	bf 92       	push	r11
     628:	cf 92       	push	r12
     62a:	df 92       	push	r13
     62c:	ef 92       	push	r14
     62e:	ff 92       	push	r15
     630:	0f 93       	push	r16
     632:	1f 93       	push	r17
     634:	cf 93       	push	r28
     636:	df 93       	push	r29
     638:	d8 2e       	mov	r13, r24
     63a:	c6 2e       	mov	r12, r22
     63c:	b4 2e       	mov	r11, r20
     63e:	a5 2e       	mov	r10, r21
     640:	20 e8       	ldi	r18, 0x80	; 128
     642:	e2 2e       	mov	r14, r18
     644:	f1 2c       	mov	r15, r1
    int16_t x = (int16_t)SCR_W;
    while (x > (int16_t)target_col) {
     646:	86 2e       	mov	r8, r22
     648:	99 24       	eor	r9, r9
    milliseconds can be achieved.
 */
void
_delay_loop_2(uint16_t __count)
{
	__asm__ volatile (
     64a:	90 e9       	ldi	r25, 0x90	; 144
     64c:	69 2e       	mov	r6, r25
     64e:	91 e0       	ldi	r25, 0x01	; 1
     650:	79 2e       	mov	r7, r25
     652:	34 c0       	rjmp	.+104    	; 0x6bc <slide_in_line+0xa0>
        oled_clr_row(page);
     654:	8d 2d       	mov	r24, r13
     656:	0e 94 d5 01 	call	0x3aa	; 0x3aa <oled_clr_row>
     65a:	87 01       	movw	r16, r14
     65c:	8b 2d       	mov	r24, r11
     65e:	9a 2d       	mov	r25, r10
     660:	9c 01       	movw	r18, r24
     662:	e9 01       	movw	r28, r18
     664:	0c c0       	rjmp	.+24     	; 0x67e <slide_in_line+0x62>
 */
static void oled_str_slide(uint8_t page, int16_t x_off, const char *s)
{
    int16_t col = x_off;
    while (*s) {
        if (col >= SCR_W) break;
     666:	00 38       	cpi	r16, 0x80	; 128
     668:	11 05       	cpc	r17, r1
     66a:	64 f4       	brge	.+24     	; 0x684 <slide_in_line+0x68>
        if (col >= 0) oled_ch(page, (uint8_t)col, *s);
     66c:	17 fd       	sbrc	r17, 7
     66e:	04 c0       	rjmp	.+8      	; 0x678 <slide_in_line+0x5c>
     670:	8d 2d       	mov	r24, r13
     672:	60 2f       	mov	r22, r16
     674:	0e 94 d9 01 	call	0x3b2	; 0x3b2 <oled_ch>
        col += 6;
     678:	0a 5f       	subi	r16, 0xFA	; 250
     67a:	1f 4f       	sbci	r17, 0xFF	; 255
        s++;
     67c:	21 96       	adiw	r28, 0x01	; 1
 * Characters outside 0..127 are simply skipped.
 */
static void oled_str_slide(uint8_t page, int16_t x_off, const char *s)
{
    int16_t col = x_off;
    while (*s) {
     67e:	48 81       	ld	r20, Y
     680:	44 23       	and	r20, r20
     682:	89 f7       	brne	.-30     	; 0x666 <slide_in_line+0x4a>
#define SLIDE_MS    30

/* Returns 1 if a button was pressed (skip request) */
static uint8_t any_btn(void)
{
    return (!(PIND & (1 << BTN_R)) ||
     684:	4a 9b       	sbis	0x09, 2	; 9
     686:	04 c0       	rjmp	.+8      	; 0x690 <slide_in_line+0x74>
     688:	4b 9b       	sbis	0x09, 3	; 9
     68a:	02 c0       	rjmp	.+4      	; 0x690 <slide_in_line+0x74>
     68c:	4f 99       	sbic	0x09, 7	; 9
     68e:	0b c0       	rjmp	.+22     	; 0x6a6 <slide_in_line+0x8a>
    while (x > (int16_t)target_col) {
        oled_clr_row(page);
        oled_str_slide(page, x, text);
        if (any_btn()) {
            /* snap to final position and return */
            oled_clr_row(page);
     690:	8d 2d       	mov	r24, r13
     692:	0e 94 d5 01 	call	0x3aa	; 0x3aa <oled_clr_row>
            oled_str(page, target_col, text);
     696:	8d 2d       	mov	r24, r13
     698:	6c 2d       	mov	r22, r12
     69a:	4b 2d       	mov	r20, r11
     69c:	5a 2d       	mov	r21, r10
     69e:	0e 94 09 02 	call	0x412	; 0x412 <oled_str>
     6a2:	81 e0       	ldi	r24, 0x01	; 1
     6a4:	18 c0       	rjmp	.+48     	; 0x6d6 <slide_in_line+0xba>
            return 1;
     6a6:	8c e2       	ldi	r24, 0x2C	; 44
     6a8:	91 e0       	ldi	r25, 0x01	; 1
     6aa:	f3 01       	movw	r30, r6
     6ac:	31 97       	sbiw	r30, 0x01	; 1
     6ae:	f1 f7       	brne	.-4      	; 0x6ac <slide_in_line+0x90>
		__ticks = (uint16_t) (__ms * 10.0);
		while(__ticks)
		{
			// wait 1/10 ms
			_delay_loop_2(((F_CPU) / 4e3) / 10);
			__ticks --;
     6b0:	01 97       	sbiw	r24, 0x01	; 1
		__ticks = 1;
	else if (__tmp > 65535)
	{
		//	__ticks = requested delay in 1/10 ms
		__ticks = (uint16_t) (__ms * 10.0);
		while(__ticks)
     6b2:	d9 f7       	brne	.-10     	; 0x6aa <slide_in_line+0x8e>
        }
        _delay_ms(SLIDE_MS);
        x -= SLIDE_STEP;
     6b4:	88 ef       	ldi	r24, 0xF8	; 248
     6b6:	9f ef       	ldi	r25, 0xFF	; 255
     6b8:	e8 0e       	add	r14, r24
     6ba:	f9 1e       	adc	r15, r25
 * Returns 1 if button pressed.
 */
static uint8_t slide_in_line(uint8_t page, uint8_t target_col, const char *text)
{
    int16_t x = (int16_t)SCR_W;
    while (x > (int16_t)target_col) {
     6bc:	8e 14       	cp	r8, r14
     6be:	9f 04       	cpc	r9, r15
     6c0:	4c f2       	brlt	.-110    	; 0x654 <slide_in_line+0x38>
            return 1;
        }
        _delay_ms(SLIDE_MS);
        x -= SLIDE_STEP;
    }
    oled_clr_row(page);
     6c2:	8d 2d       	mov	r24, r13
     6c4:	0e 94 d5 01 	call	0x3aa	; 0x3aa <oled_clr_row>
    oled_str(page, target_col, text);
     6c8:	8d 2d       	mov	r24, r13
     6ca:	6c 2d       	mov	r22, r12
     6cc:	4b 2d       	mov	r20, r11
     6ce:	5a 2d       	mov	r21, r10
     6d0:	0e 94 09 02 	call	0x412	; 0x412 <oled_str>
     6d4:	80 e0       	ldi	r24, 0x00	; 0
    return 0;
}
     6d6:	df 91       	pop	r29
     6d8:	cf 91       	pop	r28
     6da:	1f 91       	pop	r17
     6dc:	0f 91       	pop	r16
     6de:	ff 90       	pop	r15
     6e0:	ef 90       	pop	r14
     6e2:	df 90       	pop	r13
     6e4:	cf 90       	pop	r12
     6e6:	bf 90       	pop	r11
     6e8:	af 90       	pop	r10
     6ea:	9f 90       	pop	r9
     6ec:	8f 90       	pop	r8
     6ee:	7f 90       	pop	r7
     6f0:	6f 90       	pop	r6
     6f2:	08 95       	ret

000006f4 <splash_hold>:

/* Hold a splash frame for `ms` ms, skippable by any button. */
static void splash_hold(uint16_t ms)
{
     6f4:	20 e0       	ldi	r18, 0x00	; 0
     6f6:	30 e0       	ldi	r19, 0x00	; 0
     6f8:	40 ea       	ldi	r20, 0xA0	; 160
     6fa:	5f e0       	ldi	r21, 0x0F	; 15
     6fc:	0b c0       	rjmp	.+22     	; 0x714 <splash_hold+0x20>
     6fe:	fa 01       	movw	r30, r20
     700:	31 97       	sbiw	r30, 0x01	; 1
     702:	f1 f7       	brne	.-4      	; 0x700 <splash_hold+0xc>
#define SLIDE_MS    30

/* Returns 1 if a button was pressed (skip request) */
static uint8_t any_btn(void)
{
    return (!(PIND & (1 << BTN_R)) ||
     704:	4a 9b       	sbis	0x09, 2	; 9
     706:	09 c0       	rjmp	.+18     	; 0x71a <splash_hold+0x26>
     708:	4b 9b       	sbis	0x09, 3	; 9
     70a:	07 c0       	rjmp	.+14     	; 0x71a <splash_hold+0x26>
     70c:	4f 9b       	sbis	0x09, 7	; 9
     70e:	05 c0       	rjmp	.+10     	; 0x71a <splash_hold+0x26>

/* Wait ms milliseconds, returns early if button pressed */
static uint8_t wait_ms_check(uint16_t ms)
{
    uint16_t i;
    for (i = 0; i < ms; i++) {
     710:	2f 5f       	subi	r18, 0xFF	; 255
     712:	3f 4f       	sbci	r19, 0xFF	; 255
     714:	28 17       	cp	r18, r24
     716:	39 07       	cpc	r19, r25
     718:	90 f3       	brcs	.-28     	; 0x6fe <splash_hold+0xa>
     71a:	84 ef       	ldi	r24, 0xF4	; 244
     71c:	91 e0       	ldi	r25, 0x01	; 1
     71e:	20 e9       	ldi	r18, 0x90	; 144
     720:	31 e0       	ldi	r19, 0x01	; 1
     722:	f9 01       	movw	r30, r18
     724:	31 97       	sbiw	r30, 0x01	; 1
     726:	f1 f7       	brne	.-4      	; 0x724 <splash_hold+0x30>
		{
			// wait 1/10 ms
			_delay_loop_2(((F_CPU) / 4e3) / 10);
			__ticks --;
     728:	01 97       	sbiw	r24, 0x01	; 1
		__ticks = 1;
	else if (__tmp > 65535)
	{
		//	__ticks = requested delay in 1/10 ms
		__ticks = (uint16_t) (__ms * 10.0);
		while(__ticks)
     72a:	d9 f7       	brne	.-10     	; 0x722 <splash_hold+0x2e>
static void splash_hold(uint16_t ms)
{
    wait_ms_check(ms);
    /* flush release */
    _delay_ms(50);
}
     72c:	08 95       	ret

0000072e <main>:
 *    LEFT  (D3) → screen = (screen == 0) ? 3 : screen - 1
 *    MAIN  (D7) → screen = 0  (always returns to System 319 main)
 * ============================================================================ */

int main(void)
{
     72e:	2f 92       	push	r2
     730:	3f 92       	push	r3
     732:	4f 92       	push	r4
     734:	5f 92       	push	r5
     736:	6f 92       	push	r6
     738:	7f 92       	push	r7
     73a:	8f 92       	push	r8
     73c:	9f 92       	push	r9
     73e:	af 92       	push	r10
     740:	bf 92       	push	r11
     742:	cf 92       	push	r12
     744:	df 92       	push	r13
     746:	ef 92       	push	r14
     748:	ff 92       	push	r15
     74a:	0f 93       	push	r16
     74c:	1f 93       	push	r17
     74e:	df 93       	push	r29
     750:	cf 93       	push	r28
     752:	cd b7       	in	r28, 0x3d	; 61
     754:	de b7       	in	r29, 0x3e	; 62
     756:	ab 97       	sbiw	r28, 0x2b	; 43
     758:	0f b6       	in	r0, 0x3f	; 63
     75a:	f8 94       	cli
     75c:	de bf       	out	0x3e, r29	; 62
     75e:	0f be       	out	0x3f, r0	; 63
     760:	cd bf       	out	0x3d, r28	; 61
#define FAN_MED   102   /* 40 % */
#define FAN_HIGH  230   /* 90 % */

static void fan_init(void)
{
    DDRB   |=  (1 << PB1);
     762:	21 9a       	sbi	0x04, 1	; 4
    TCCR1A  = (1 << COM1A1) | (1 << WGM10);
     764:	81 e8       	ldi	r24, 0x81	; 129
     766:	80 93 80 00 	sts	0x0080, r24
    TCCR1B  = (1 << WGM12)  | (1 << CS11);
     76a:	8a e0       	ldi	r24, 0x0A	; 10
     76c:	80 93 81 00 	sts	0x0081, r24
    OCR1A   = FAN_OFF;
     770:	10 92 89 00 	sts	0x0089, r1
     774:	10 92 88 00 	sts	0x0088, r1
 *  §7  BUZZER  —  D8 / PB0, Active-LOW
 * ============================================================================ */

static void buz_init(void)
{
    DDRB  |=  (1 << PB0);
     778:	20 9a       	sbi	0x04, 0	; 4
    PORTB |=  (1 << PB0);   /* HIGH = OFF */
     77a:	28 9a       	sbi	0x05, 0	; 5
#define LED_Y PD5
#define LED_R PD6

static void leds_init(void)
{
    DDRD  |=  (1 << LED_G) | (1 << LED_Y) | (1 << LED_R);
     77c:	8a b1       	in	r24, 0x0a	; 10
     77e:	80 67       	ori	r24, 0x70	; 112
     780:	8a b9       	out	0x0a, r24	; 10
    PORTD &= ~((1 << LED_G) | (1 << LED_Y) | (1 << LED_R));
     782:	8b b1       	in	r24, 0x0b	; 11
     784:	8f 78       	andi	r24, 0x8F	; 143
     786:	8b b9       	out	0x0b, r24	; 11
#define BTN_L PD3
#define BTN_M PD7

static void btn_init(void)
{
    DDRD  &= ~((1 << BTN_R) | (1 << BTN_L) | (1 << BTN_M));
     788:	8a b1       	in	r24, 0x0a	; 10
     78a:	83 77       	andi	r24, 0x73	; 115
     78c:	8a b9       	out	0x0a, r24	; 10
    PORTD |=  ((1 << BTN_R) | (1 << BTN_L) | (1 << BTN_M));
     78e:	8b b1       	in	r24, 0x0b	; 11
     790:	8c 68       	ori	r24, 0x8C	; 140
     792:	8b b9       	out	0x0b, r24	; 11
 * ============================================================================ */

static void i2c_init(void)
{
    /* TWBR = (F_CPU/SCL − 16) / (2 × prescaler);  prescaler = 1 */
    TWBR = (uint8_t)(((F_CPU / 400000UL) - 16UL) / 2UL);
     794:	8c e0       	ldi	r24, 0x0C	; 12
     796:	80 93 b8 00 	sts	0x00B8, r24
    TWSR &= ~((1 << TWPS1) | (1 << TWPS0));
     79a:	80 91 b9 00 	lds	r24, 0x00B9
     79e:	8c 7f       	andi	r24, 0xFC	; 252
     7a0:	80 93 b9 00 	sts	0x00B9, r24
    TWCR  = (1 << TWEN);
     7a4:	84 e0       	ldi	r24, 0x04	; 4
     7a6:	80 93 bc 00 	sts	0x00BC, r24
     7aa:	88 ee       	ldi	r24, 0xE8	; 232
     7ac:	93 e0       	ldi	r25, 0x03	; 3
     7ae:	20 e9       	ldi	r18, 0x90	; 144
     7b0:	31 e0       	ldi	r19, 0x01	; 1
     7b2:	f9 01       	movw	r30, r18
     7b4:	31 97       	sbiw	r30, 0x01	; 1
     7b6:	f1 f7       	brne	.-4      	; 0x7b4 <main+0x86>
		{
			// wait 1/10 ms
			_delay_loop_2(((F_CPU) / 4e3) / 10);
			__ticks --;
     7b8:	01 97       	sbiw	r24, 0x01	; 1
		__ticks = 1;
	else if (__tmp > 65535)
	{
		//	__ticks = requested delay in 1/10 ms
		__ticks = (uint16_t) (__ms * 10.0);
		while(__ticks)
     7ba:	d9 f7       	brne	.-10     	; 0x7b2 <main+0x84>
     7bc:	08 e6       	ldi	r16, 0x68	; 104
     7be:	10 e0       	ldi	r17, 0x00	; 0
        0xA4,             /* RAM display */
        0xA6,             /* normal (non-inverted) */
        0xAF              /* display ON */
    };
    uint8_t i;
    for (i = 0; i < sizeof(seq); i++) oled_cmd(pgm_read_byte(&seq[i]));
     7c0:	f8 01       	movw	r30, r16
     7c2:	84 91       	lpm	r24, Z+
     7c4:	0e 94 7b 01 	call	0x2f6	; 0x2f6 <oled_cmd>
     7c8:	0f 5f       	subi	r16, 0xFF	; 255
     7ca:	1f 4f       	sbci	r17, 0xFF	; 255
     7cc:	f0 e0       	ldi	r31, 0x00	; 0
     7ce:	01 38       	cpi	r16, 0x81	; 129
     7d0:	1f 07       	cpc	r17, r31
     7d2:	b1 f7       	brne	.-20     	; 0x7c0 <main+0x92>
     7d4:	80 e9       	ldi	r24, 0x90	; 144
     7d6:	91 e0       	ldi	r25, 0x01	; 1
     7d8:	20 e9       	ldi	r18, 0x90	; 144
     7da:	31 e0       	ldi	r19, 0x01	; 1
     7dc:	f9 01       	movw	r30, r18
     7de:	31 97       	sbiw	r30, 0x01	; 1
     7e0:	f1 f7       	brne	.-4      	; 0x7de <main+0xb0>
		{
			// wait 1/10 ms
			_delay_loop_2(((F_CPU) / 4e3) / 10);
			__ticks --;
     7e2:	01 97       	sbiw	r24, 0x01	; 1
		__ticks = 1;
	else if (__tmp > 65535)
	{
		//	__ticks = requested delay in 1/10 ms
		__ticks = (uint16_t) (__ms * 10.0);
		while(__ticks)
     7e4:	d9 f7       	brne	.-10     	; 0x7dc <main+0xae>
#define AHT20_R  0x71   /* (0x38 << 1) | 1 */

static void aht20_init(void)
{
    _delay_ms(40);
    i2c_start();
     7e6:	0e 94 4d 01 	call	0x29a	; 0x29a <i2c_start>
    i2c_write(AHT20_W);
     7ea:	80 e7       	ldi	r24, 0x70	; 112
     7ec:	0e 94 63 01 	call	0x2c6	; 0x2c6 <i2c_write>
    i2c_write(0xBE);    /* soft-reset / init */
     7f0:	8e eb       	ldi	r24, 0xBE	; 190
     7f2:	0e 94 63 01 	call	0x2c6	; 0x2c6 <i2c_write>
    i2c_write(0x08);
     7f6:	88 e0       	ldi	r24, 0x08	; 8
     7f8:	0e 94 63 01 	call	0x2c6	; 0x2c6 <i2c_write>
    i2c_write(0x00);
     7fc:	80 e0       	ldi	r24, 0x00	; 0
     7fe:	0e 94 63 01 	call	0x2c6	; 0x2c6 <i2c_write>
    return (s == 0x08 || s == 0x10);   /* START or REP_START */
}

static void i2c_stop(void)
{
    TWCR = (1 << TWINT) | (1 << TWSTO) | (1 << TWEN);
     802:	84 e9       	ldi	r24, 0x94	; 148
     804:	80 93 bc 00 	sts	0x00BC, r24
     808:	80 e4       	ldi	r24, 0x40	; 64
     80a:	9c e9       	ldi	r25, 0x9C	; 156
     80c:	01 97       	sbiw	r24, 0x01	; 1
     80e:	f1 f7       	brne	.-4      	; 0x80c <main+0xde>
/* --------------------------------------------------------------------------
 *  Splash frame 1: Project name
 * -------------------------------------------------------------------------- */
static void splash_project(void)
{
    oled_clear();
     810:	0e 94 b1 01 	call	0x362	; 0x362 <oled_clear>
    oled_row(0, 0xFF);
     814:	80 e0       	ldi	r24, 0x00	; 0
     816:	6f ef       	ldi	r22, 0xFF	; 255
     818:	0e 94 c5 01 	call	0x38a	; 0x38a <oled_row>
    oled_str(0, 14, "  SYSTEM  319  ");
     81c:	80 e0       	ldi	r24, 0x00	; 0
     81e:	6e e0       	ldi	r22, 0x0E	; 14
     820:	40 e0       	ldi	r20, 0x00	; 0
     822:	51 e0       	ldi	r21, 0x01	; 1
     824:	0e 94 09 02 	call	0x412	; 0x412 <oled_str>
    oled_row(1, 0xFF);
     828:	81 e0       	ldi	r24, 0x01	; 1
     82a:	6f ef       	ldi	r22, 0xFF	; 255
     82c:	0e 94 c5 01 	call	0x38a	; 0x38a <oled_row>

    if (slide_in_line(3, 10, "Smart Temp &")) return;
     830:	83 e0       	ldi	r24, 0x03	; 3
     832:	6a e0       	ldi	r22, 0x0A	; 10
     834:	40 e1       	ldi	r20, 0x10	; 16
     836:	51 e0       	ldi	r21, 0x01	; 1
     838:	0e 94 0e 03 	call	0x61c	; 0x61c <slide_in_line>
     83c:	88 23       	and	r24, r24
     83e:	f1 f4       	brne	.+60     	; 0x87c <main+0x14e>
    if (slide_in_line(4,  8, "Humidity Monitor")) return;
     840:	84 e0       	ldi	r24, 0x04	; 4
     842:	68 e0       	ldi	r22, 0x08	; 8
     844:	4d e1       	ldi	r20, 0x1D	; 29
     846:	51 e0       	ldi	r21, 0x01	; 1
     848:	0e 94 0e 03 	call	0x61c	; 0x61c <slide_in_line>
     84c:	88 23       	and	r24, r24
     84e:	b1 f4       	brne	.+44     	; 0x87c <main+0x14e>
    if (slide_in_line(5,  8, "ATmega328P | I2C")) return;
     850:	85 e0       	ldi	r24, 0x05	; 5
     852:	68 e0       	ldi	r22, 0x08	; 8
     854:	4e e2       	ldi	r20, 0x2E	; 46
     856:	51 e0       	ldi	r21, 0x01	; 1
     858:	0e 94 0e 03 	call	0x61c	; 0x61c <slide_in_line>
     85c:	88 23       	and	r24, r24
     85e:	71 f4       	brne	.+28     	; 0x87c <main+0x14e>

    oled_row(7, 0xFF);
     860:	87 e0       	ldi	r24, 0x07	; 7
     862:	6f ef       	ldi	r22, 0xFF	; 255
     864:	0e 94 c5 01 	call	0x38a	; 0x38a <oled_row>
    oled_str(7, 14, "Any key to skip");
     868:	87 e0       	ldi	r24, 0x07	; 7
     86a:	6e e0       	ldi	r22, 0x0E	; 14
     86c:	4f e3       	ldi	r20, 0x3F	; 63
     86e:	51 e0       	ldi	r21, 0x01	; 1
     870:	0e 94 09 02 	call	0x412	; 0x412 <oled_str>
    splash_hold(2500);
     874:	84 ec       	ldi	r24, 0xC4	; 196
     876:	99 e0       	ldi	r25, 0x09	; 9
     878:	0e 94 7a 03 	call	0x6f4	; 0x6f4 <splash_hold>
/* --------------------------------------------------------------------------
 *  Splash frame 2: Lecturer + Group Leader
 * -------------------------------------------------------------------------- */
static void splash_lecturer(void)
{
    oled_clear();
     87c:	0e 94 b1 01 	call	0x362	; 0x362 <oled_clear>
    oled_row(0, 0xFF);
     880:	80 e0       	ldi	r24, 0x00	; 0
     882:	6f ef       	ldi	r22, 0xFF	; 255
     884:	0e 94 c5 01 	call	0x38a	; 0x38a <oled_row>
    oled_str(0, 14, "   EDUCATORS   ");
     888:	80 e0       	ldi	r24, 0x00	; 0
     88a:	6e e0       	ldi	r22, 0x0E	; 14
     88c:	4f e4       	ldi	r20, 0x4F	; 79
     88e:	51 e0       	ldi	r21, 0x01	; 1
     890:	0e 94 09 02 	call	0x412	; 0x412 <oled_str>
    oled_row(1, 0x01);
     894:	81 e0       	ldi	r24, 0x01	; 1
     896:	61 e0       	ldi	r22, 0x01	; 1
     898:	0e 94 c5 01 	call	0x38a	; 0x38a <oled_row>

    if (slide_in_line(2, 4, "Lecturer:")) return;
     89c:	82 e0       	ldi	r24, 0x02	; 2
     89e:	64 e0       	ldi	r22, 0x04	; 4
     8a0:	4f e5       	ldi	r20, 0x5F	; 95
     8a2:	51 e0       	ldi	r21, 0x01	; 1
     8a4:	0e 94 0e 03 	call	0x61c	; 0x61c <slide_in_line>
     8a8:	88 23       	and	r24, r24
     8aa:	51 f5       	brne	.+84     	; 0x900 <__stack+0x1>
    if (slide_in_line(3, 4, "Miss Aimen Najeeb")) return;
     8ac:	83 e0       	ldi	r24, 0x03	; 3
     8ae:	64 e0       	ldi	r22, 0x04	; 4
     8b0:	49 e6       	ldi	r20, 0x69	; 105
     8b2:	51 e0       	ldi	r21, 0x01	; 1
     8b4:	0e 94 0e 03 	call	0x61c	; 0x61c <slide_in_line>
     8b8:	88 23       	and	r24, r24
     8ba:	11 f5       	brne	.+68     	; 0x900 <__stack+0x1>
    oled_row(4, 0x08);
     8bc:	84 e0       	ldi	r24, 0x04	; 4
     8be:	68 e0       	ldi	r22, 0x08	; 8
     8c0:	0e 94 c5 01 	call	0x38a	; 0x38a <oled_row>
    if (slide_in_line(5, 4, "Group Leader:")) return;
     8c4:	85 e0       	ldi	r24, 0x05	; 5
     8c6:	64 e0       	ldi	r22, 0x04	; 4
     8c8:	4b e7       	ldi	r20, 0x7B	; 123
     8ca:	51 e0       	ldi	r21, 0x01	; 1
     8cc:	0e 94 0e 03 	call	0x61c	; 0x61c <slide_in_line>
     8d0:	88 23       	and	r24, r24
     8d2:	b1 f4       	brne	.+44     	; 0x900 <__stack+0x1>
    if (slide_in_line(6, 4, "M. Taha  EE-23319")) return;
     8d4:	86 e0       	ldi	r24, 0x06	; 6
     8d6:	64 e0       	ldi	r22, 0x04	; 4
     8d8:	49 e8       	ldi	r20, 0x89	; 137
     8da:	51 e0       	ldi	r21, 0x01	; 1
     8dc:	0e 94 0e 03 	call	0x61c	; 0x61c <slide_in_line>
     8e0:	88 23       	and	r24, r24
     8e2:	71 f4       	brne	.+28     	; 0x900 <__stack+0x1>

    oled_row(7, 0xFF);
     8e4:	87 e0       	ldi	r24, 0x07	; 7
     8e6:	6f ef       	ldi	r22, 0xFF	; 255
     8e8:	0e 94 c5 01 	call	0x38a	; 0x38a <oled_row>
    oled_str(7, 14, "Any key to skip");
     8ec:	87 e0       	ldi	r24, 0x07	; 7
     8ee:	6e e0       	ldi	r22, 0x0E	; 14
     8f0:	4f e3       	ldi	r20, 0x3F	; 63
     8f2:	51 e0       	ldi	r21, 0x01	; 1
     8f4:	0e 94 09 02 	call	0x412	; 0x412 <oled_str>
    splash_hold(2500);
     8f8:	84 ec       	ldi	r24, 0xC4	; 196
     8fa:	99 e0       	ldi	r25, 0x09	; 9
     8fc:	0e 94 7a 03 	call	0x6f4	; 0x6f4 <splash_hold>
/* --------------------------------------------------------------------------
 *  Splash frame 3: Group members
 * -------------------------------------------------------------------------- */
static void splash_members(void)
{
    oled_clear();
     900:	0e 94 b1 01 	call	0x362	; 0x362 <oled_clear>
    oled_row(0, 0xFF);
     904:	80 e0       	ldi	r24, 0x00	; 0
     906:	6f ef       	ldi	r22, 0xFF	; 255
     908:	0e 94 c5 01 	call	0x38a	; 0x38a <oled_row>
    oled_str(0, 14, " GROUP MEMBERS ");
     90c:	80 e0       	ldi	r24, 0x00	; 0
     90e:	6e e0       	ldi	r22, 0x0E	; 14
     910:	4b e9       	ldi	r20, 0x9B	; 155
     912:	51 e0       	ldi	r21, 0x01	; 1
     914:	0e 94 09 02 	call	0x412	; 0x412 <oled_str>
    oled_row(1, 0xFF);
     918:	81 e0       	ldi	r24, 0x01	; 1
     91a:	6f ef       	ldi	r22, 0xFF	; 255
     91c:	0e 94 c5 01 	call	0x38a	; 0x38a <oled_row>

    if (slide_in_line(2, 4, "Members:")) return;
     920:	82 e0       	ldi	r24, 0x02	; 2
     922:	64 e0       	ldi	r22, 0x04	; 4
     924:	4b ea       	ldi	r20, 0xAB	; 171
     926:	51 e0       	ldi	r21, 0x01	; 1
     928:	0e 94 0e 03 	call	0x61c	; 0x61c <slide_in_line>
     92c:	88 23       	and	r24, r24
     92e:	31 f5       	brne	.+76     	; 0x97c <__stack+0x7d>
    if (slide_in_line(3, 4, "Ali    EE-23328")) return;
     930:	83 e0       	ldi	r24, 0x03	; 3
     932:	64 e0       	ldi	r22, 0x04	; 4
     934:	44 eb       	ldi	r20, 0xB4	; 180
     936:	51 e0       	ldi	r21, 0x01	; 1
     938:	0e 94 0e 03 	call	0x61c	; 0x61c <slide_in_line>
     93c:	88 23       	and	r24, r24
     93e:	f1 f4       	brne	.+60     	; 0x97c <__stack+0x7d>
    if (slide_in_line(4, 4, "Ahmed  EE-23325")) return;
     940:	84 e0       	ldi	r24, 0x04	; 4
     942:	64 e0       	ldi	r22, 0x04	; 4
     944:	44 ec       	ldi	r20, 0xC4	; 196
     946:	51 e0       	ldi	r21, 0x01	; 1
     948:	0e 94 0e 03 	call	0x61c	; 0x61c <slide_in_line>
     94c:	88 23       	and	r24, r24
     94e:	b1 f4       	brne	.+44     	; 0x97c <__stack+0x7d>
    if (slide_in_line(5, 4, "Farzam EE-23326")) return;
     950:	85 e0       	ldi	r24, 0x05	; 5
     952:	64 e0       	ldi	r22, 0x04	; 4
     954:	44 ed       	ldi	r20, 0xD4	; 212
     956:	51 e0       	ldi	r21, 0x01	; 1
     958:	0e 94 0e 03 	call	0x61c	; 0x61c <slide_in_line>
     95c:	88 23       	and	r24, r24
     95e:	71 f4       	brne	.+28     	; 0x97c <__stack+0x7d>

    oled_row(7, 0xFF);
     960:	87 e0       	ldi	r24, 0x07	; 7
     962:	6f ef       	ldi	r22, 0xFF	; 255
     964:	0e 94 c5 01 	call	0x38a	; 0x38a <oled_row>
    oled_str(7, 14, "Any key to skip");
     968:	87 e0       	ldi	r24, 0x07	; 7
     96a:	6e e0       	ldi	r22, 0x0E	; 14
     96c:	4f e3       	ldi	r20, 0x3F	; 63
     96e:	51 e0       	ldi	r21, 0x01	; 1
     970:	0e 94 09 02 	call	0x412	; 0x412 <oled_str>
    splash_hold(2500);
     974:	84 ec       	ldi	r24, 0xC4	; 196
     976:	99 e0       	ldi	r25, 0x09	; 9
     978:	0e 94 7a 03 	call	0x6f4	; 0x6f4 <splash_hold>
/* --------------------------------------------------------------------------
 *  Splash frame 4: System 319 + "System Ready" status
 * -------------------------------------------------------------------------- */
static void splash_ready(void)
{
    oled_clear();
     97c:	0e 94 b1 01 	call	0x362	; 0x362 <oled_clear>
    oled_row(0, 0xFF);
     980:	80 e0       	ldi	r24, 0x00	; 0
     982:	6f ef       	ldi	r22, 0xFF	; 255
     984:	0e 94 c5 01 	call	0x38a	; 0x38a <oled_row>
    oled_str(0, 14, "  SYSTEM  319  ");
     988:	80 e0       	ldi	r24, 0x00	; 0
     98a:	6e e0       	ldi	r22, 0x0E	; 14
     98c:	40 e0       	ldi	r20, 0x00	; 0
     98e:	51 e0       	ldi	r21, 0x01	; 1
     990:	0e 94 09 02 	call	0x412	; 0x412 <oled_str>
    oled_row(1, 0xFF);
     994:	81 e0       	ldi	r24, 0x01	; 1
     996:	6f ef       	ldi	r22, 0xFF	; 255
     998:	0e 94 c5 01 	call	0x38a	; 0x38a <oled_row>

    if (slide_in_line(3, 20, "System 319")) return;
     99c:	83 e0       	ldi	r24, 0x03	; 3
     99e:	64 e1       	ldi	r22, 0x14	; 20
     9a0:	44 ee       	ldi	r20, 0xE4	; 228
     9a2:	51 e0       	ldi	r21, 0x01	; 1
     9a4:	0e 94 0e 03 	call	0x61c	; 0x61c <slide_in_line>
     9a8:	88 23       	and	r24, r24
     9aa:	a1 f5       	brne	.+104    	; 0xa14 <__stack+0x115>
    if (slide_in_line(4,  8, "Initializing...")) return;
     9ac:	84 e0       	ldi	r24, 0x04	; 4
     9ae:	68 e0       	ldi	r22, 0x08	; 8
     9b0:	4f ee       	ldi	r20, 0xEF	; 239
     9b2:	51 e0       	ldi	r21, 0x01	; 1
     9b4:	0e 94 0e 03 	call	0x61c	; 0x61c <slide_in_line>
     9b8:	88 23       	and	r24, r24
     9ba:	61 f5       	brne	.+88     	; 0xa14 <__stack+0x115>
    if (slide_in_line(5, 14, "Please wait")) return;
     9bc:	85 e0       	ldi	r24, 0x05	; 5
     9be:	6e e0       	ldi	r22, 0x0E	; 14
     9c0:	4f ef       	ldi	r20, 0xFF	; 255
     9c2:	51 e0       	ldi	r21, 0x01	; 1
     9c4:	0e 94 0e 03 	call	0x61c	; 0x61c <slide_in_line>
     9c8:	88 23       	and	r24, r24
     9ca:	21 f5       	brne	.+72     	; 0xa14 <__stack+0x115>

    oled_row(7, 0xFF);
     9cc:	87 e0       	ldi	r24, 0x07	; 7
     9ce:	6f ef       	ldi	r22, 0xFF	; 255
     9d0:	0e 94 c5 01 	call	0x38a	; 0x38a <oled_row>
    oled_str(7, 20, "Starting up...");
     9d4:	87 e0       	ldi	r24, 0x07	; 7
     9d6:	64 e1       	ldi	r22, 0x14	; 20
     9d8:	4b e0       	ldi	r20, 0x0B	; 11
     9da:	52 e0       	ldi	r21, 0x02	; 2
     9dc:	0e 94 09 02 	call	0x412	; 0x412 <oled_str>
    splash_hold(1500);
     9e0:	8c ed       	ldi	r24, 0xDC	; 220
     9e2:	95 e0       	ldi	r25, 0x05	; 5
     9e4:	0e 94 7a 03 	call	0x6f4	; 0x6f4 <splash_hold>

    /* "Ready" confirmation frame */
    oled_clr_row(4); oled_clr_row(5);
     9e8:	84 e0       	ldi	r24, 0x04	; 4
     9ea:	0e 94 d5 01 	call	0x3aa	; 0x3aa <oled_clr_row>
     9ee:	85 e0       	ldi	r24, 0x05	; 5
     9f0:	0e 94 d5 01 	call	0x3aa	; 0x3aa <oled_clr_row>
    oled_str(4,  8, "System Ready!");
     9f4:	84 e0       	ldi	r24, 0x04	; 4
     9f6:	68 e0       	ldi	r22, 0x08	; 8
     9f8:	4a e1       	ldi	r20, 0x1A	; 26
     9fa:	52 e0       	ldi	r21, 0x02	; 2
     9fc:	0e 94 09 02 	call	0x412	; 0x412 <oled_str>
    oled_str(5, 14, "Monitoring ON");
     a00:	85 e0       	ldi	r24, 0x05	; 5
     a02:	6e e0       	ldi	r22, 0x0E	; 14
     a04:	48 e2       	ldi	r20, 0x28	; 40
     a06:	52 e0       	ldi	r21, 0x02	; 2
     a08:	0e 94 09 02 	call	0x412	; 0x412 <oled_str>
    splash_hold(1200);
     a0c:	80 eb       	ldi	r24, 0xB0	; 176
     a0e:	94 e0       	ldi	r25, 0x04	; 4
     a10:	0e 94 7a 03 	call	0x6f4	; 0x6f4 <splash_hold>
     a14:	88 ee       	ldi	r24, 0xE8	; 232
     a16:	93 e0       	ldi	r25, 0x03	; 3
     a18:	20 e9       	ldi	r18, 0x90	; 144
     a1a:	31 e0       	ldi	r19, 0x01	; 1
     a1c:	f9 01       	movw	r30, r18
     a1e:	31 97       	sbiw	r30, 0x01	; 1
     a20:	f1 f7       	brne	.-4      	; 0xa1e <__stack+0x11f>
		{
			// wait 1/10 ms
			_delay_loop_2(((F_CPU) / 4e3) / 10);
			__ticks --;
     a22:	01 97       	sbiw	r24, 0x01	; 1
		__ticks = 1;
	else if (__tmp > 65535)
	{
		//	__ticks = requested delay in 1/10 ms
		__ticks = (uint16_t) (__ms * 10.0);
		while(__ticks)
     a24:	d9 f7       	brne	.-10     	; 0xa1c <__stack+0x11d>
     a26:	20 e0       	ldi	r18, 0x00	; 0
     a28:	40 e9       	ldi	r20, 0x90	; 144
     a2a:	51 e0       	ldi	r21, 0x01	; 1
{
    DDRB  |=  (1 << PB0);
    PORTB |=  (1 << PB0);   /* HIGH = OFF */
}

static inline void buz_on(void)  { PORTB &= ~(1 << PB0); }
     a2c:	28 98       	cbi	0x05, 0	; 5
     a2e:	88 ee       	ldi	r24, 0xE8	; 232
     a30:	93 e0       	ldi	r25, 0x03	; 3
     a32:	fa 01       	movw	r30, r20
     a34:	31 97       	sbiw	r30, 0x01	; 1
     a36:	f1 f7       	brne	.-4      	; 0xa34 <__stack+0x135>
		{
			// wait 1/10 ms
			_delay_loop_2(((F_CPU) / 4e3) / 10);
			__ticks --;
     a38:	01 97       	sbiw	r24, 0x01	; 1
		__ticks = 1;
	else if (__tmp > 65535)
	{
		//	__ticks = requested delay in 1/10 ms
		__ticks = (uint16_t) (__ms * 10.0);
		while(__ticks)
     a3a:	d9 f7       	brne	.-10     	; 0xa32 <__stack+0x133>
static inline void buz_off(void) { PORTB |=  (1 << PB0); }
     a3c:	28 9a       	sbi	0x05, 0	; 5
     a3e:	8c eb       	ldi	r24, 0xBC	; 188
     a40:	92 e0       	ldi	r25, 0x02	; 2
     a42:	fa 01       	movw	r30, r20
     a44:	31 97       	sbiw	r30, 0x01	; 1
     a46:	f1 f7       	brne	.-4      	; 0xa44 <__stack+0x145>
		{
			// wait 1/10 ms
			_delay_loop_2(((F_CPU) / 4e3) / 10);
			__ticks --;
     a48:	01 97       	sbiw	r24, 0x01	; 1
		__ticks = 1;
	else if (__tmp > 65535)
	{
		//	__ticks = requested delay in 1/10 ms
		__ticks = (uint16_t) (__ms * 10.0);
		while(__ticks)
     a4a:	d9 f7       	brne	.-10     	; 0xa42 <__stack+0x143>

/* Boot beep — 3 short + 1 long; called once before main loop. */
static void buz_boot(void)
{
    uint8_t i;
    for (i = 0; i < 3; i++) {
     a4c:	2f 5f       	subi	r18, 0xFF	; 255
     a4e:	23 30       	cpi	r18, 0x03	; 3
     a50:	69 f7       	brne	.-38     	; 0xa2c <__stack+0x12d>
     a52:	80 eb       	ldi	r24, 0xB0	; 176
     a54:	94 e0       	ldi	r25, 0x04	; 4
     a56:	20 e9       	ldi	r18, 0x90	; 144
     a58:	31 e0       	ldi	r19, 0x01	; 1
     a5a:	f9 01       	movw	r30, r18
     a5c:	31 97       	sbiw	r30, 0x01	; 1
     a5e:	f1 f7       	brne	.-4      	; 0xa5c <__stack+0x15d>
		{
			// wait 1/10 ms
			_delay_loop_2(((F_CPU) / 4e3) / 10);
			__ticks --;
     a60:	01 97       	sbiw	r24, 0x01	; 1
		__ticks = 1;
	else if (__tmp > 65535)
	{
		//	__ticks = requested delay in 1/10 ms
		__ticks = (uint16_t) (__ms * 10.0);
		while(__ticks)
     a62:	d9 f7       	brne	.-10     	; 0xa5a <__stack+0x15b>
{
    DDRB  |=  (1 << PB0);
    PORTB |=  (1 << PB0);   /* HIGH = OFF */
}

static inline void buz_on(void)  { PORTB &= ~(1 << PB0); }
     a64:	28 98       	cbi	0x05, 0	; 5
     a66:	84 ec       	ldi	r24, 0xC4	; 196
     a68:	99 e0       	ldi	r25, 0x09	; 9
     a6a:	20 e9       	ldi	r18, 0x90	; 144
     a6c:	31 e0       	ldi	r19, 0x01	; 1
     a6e:	f9 01       	movw	r30, r18
     a70:	31 97       	sbiw	r30, 0x01	; 1
     a72:	f1 f7       	brne	.-4      	; 0xa70 <__stack+0x171>
		{
			// wait 1/10 ms
			_delay_loop_2(((F_CPU) / 4e3) / 10);
			__ticks --;
     a74:	01 97       	sbiw	r24, 0x01	; 1
		__ticks = 1;
	else if (__tmp > 65535)
	{
		//	__ticks = requested delay in 1/10 ms
		__ticks = (uint16_t) (__ms * 10.0);
		while(__ticks)
     a76:	d9 f7       	brne	.-10     	; 0xa6e <__stack+0x16f>
static inline void buz_off(void) { PORTB |=  (1 << PB0); }
     a78:	28 9a       	sbi	0x05, 0	; 5
     a7a:	88 24       	eor	r8, r8
     a7c:	99 24       	eor	r9, r9
     a7e:	22 24       	eor	r2, r2
     a80:	bb 24       	eor	r11, r11
     a82:	b3 94       	inc	r11
     a84:	19 a6       	std	Y+41, r1	; 0x29
        }
    }

    oled_row(7, 0x80);
    {
        char b[18]; strcpy(b, "Now:");
     a86:	ce 01       	movw	r24, r28
     a88:	01 96       	adiw	r24, 0x01	; 1
     a8a:	9b a7       	std	Y+43, r25	; 0x2b
     a8c:	8a a7       	std	Y+42, r24	; 0x2a
    /* Separator */
    oled_row(1, 0x01);

    /* Temperature */
    oled_clr_row(2);
    strcpy(buf, "Temp: ");
     a8e:	93 e1       	ldi	r25, 0x13	; 19
     a90:	49 2e       	mov	r4, r25
     a92:	51 2c       	mov	r5, r1
     a94:	4c 0e       	add	r4, r28
     a96:	5d 1e       	adc	r5, r29
     a98:	04 c0       	rjmp	.+8      	; 0xaa2 <__stack+0x1a3>
    DDRB  |=  (1 << PB0);
    PORTB |=  (1 << PB0);   /* HIGH = OFF */
}

static inline void buz_on(void)  { PORTB &= ~(1 << PB0); }
static inline void buz_off(void) { PORTB |=  (1 << PB0); }
     a9a:	83 e0       	ldi	r24, 0x03	; 3
     a9c:	28 2e       	mov	r2, r24
     a9e:	bb 24       	eor	r11, r11
     aa0:	b3 94       	inc	r11
static void aht20_read(int16_t *tc10, uint16_t *hp10)
{
    uint8_t b[6];

    /* Trigger measurement */
    i2c_start(); i2c_write(AHT20_W);
     aa2:	0e 94 4d 01 	call	0x29a	; 0x29a <i2c_start>
     aa6:	80 e7       	ldi	r24, 0x70	; 112
     aa8:	0e 94 63 01 	call	0x2c6	; 0x2c6 <i2c_write>
    i2c_write(0xAC); i2c_write(0x33); i2c_write(0x00);
     aac:	8c ea       	ldi	r24, 0xAC	; 172
     aae:	0e 94 63 01 	call	0x2c6	; 0x2c6 <i2c_write>
     ab2:	83 e3       	ldi	r24, 0x33	; 51
     ab4:	0e 94 63 01 	call	0x2c6	; 0x2c6 <i2c_write>
     ab8:	80 e0       	ldi	r24, 0x00	; 0
     aba:	0e 94 63 01 	call	0x2c6	; 0x2c6 <i2c_write>
    return (s == 0x08 || s == 0x10);   /* START or REP_START */
}

static void i2c_stop(void)
{
    TWCR = (1 << TWINT) | (1 << TWSTO) | (1 << TWEN);
     abe:	84 e9       	ldi	r24, 0x94	; 148
     ac0:	80 93 bc 00 	sts	0x00BC, r24
     ac4:	80 e2       	ldi	r24, 0x20	; 32
     ac6:	93 e0       	ldi	r25, 0x03	; 3
     ac8:	e0 e9       	ldi	r30, 0x90	; 144
     aca:	f1 e0       	ldi	r31, 0x01	; 1
     acc:	31 97       	sbiw	r30, 0x01	; 1
     ace:	f1 f7       	brne	.-4      	; 0xacc <__stack+0x1cd>
		{
			// wait 1/10 ms
			_delay_loop_2(((F_CPU) / 4e3) / 10);
			__ticks --;
     ad0:	01 97       	sbiw	r24, 0x01	; 1
		__ticks = 1;
	else if (__tmp > 65535)
	{
		//	__ticks = requested delay in 1/10 ms
		__ticks = (uint16_t) (__ms * 10.0);
		while(__ticks)
     ad2:	d1 f7       	brne	.-12     	; 0xac8 <__stack+0x1c9>
    i2c_write(0xAC); i2c_write(0x33); i2c_write(0x00);
    i2c_stop();
    _delay_ms(80);

    /* Read 6 bytes */
    i2c_start(); i2c_write(AHT20_R);
     ad4:	0e 94 4d 01 	call	0x29a	; 0x29a <i2c_start>
     ad8:	81 e7       	ldi	r24, 0x71	; 113
     ada:	0e 94 63 01 	call	0x2c6	; 0x2c6 <i2c_write>
    return (s == 0x18 || s == 0x28);   /* SLA+W ACK or DATA ACK */
}

static uint8_t i2c_read(uint8_t send_ack)
{
    TWCR = (1 << TWINT) | (1 << TWEN) | (send_ack ? (1 << TWEA) : 0);
     ade:	84 ec       	ldi	r24, 0xC4	; 196
     ae0:	80 93 bc 00 	sts	0x00BC, r24
    while (!(TWCR & (1 << TWINT)));
     ae4:	80 91 bc 00 	lds	r24, 0x00BC
     ae8:	87 ff       	sbrs	r24, 7
     aea:	fc cf       	rjmp	.-8      	; 0xae4 <__stack+0x1e5>
    return TWDR;
     aec:	80 91 bb 00 	lds	r24, 0x00BB
    return (s == 0x18 || s == 0x28);   /* SLA+W ACK or DATA ACK */
}

static uint8_t i2c_read(uint8_t send_ack)
{
    TWCR = (1 << TWINT) | (1 << TWEN) | (send_ack ? (1 << TWEA) : 0);
     af0:	84 ec       	ldi	r24, 0xC4	; 196
     af2:	80 93 bc 00 	sts	0x00BC, r24
    while (!(TWCR & (1 << TWINT)));
     af6:	80 91 bc 00 	lds	r24, 0x00BC
     afa:	87 ff       	sbrs	r24, 7
     afc:	fc cf       	rjmp	.-8      	; 0xaf6 <__stack+0x1f7>
    return TWDR;
     afe:	20 91 bb 00 	lds	r18, 0x00BB
    return (s == 0x18 || s == 0x28);   /* SLA+W ACK or DATA ACK */
}

static uint8_t i2c_read(uint8_t send_ack)
{
    TWCR = (1 << TWINT) | (1 << TWEN) | (send_ack ? (1 << TWEA) : 0);
     b02:	84 ec       	ldi	r24, 0xC4	; 196
     b04:	80 93 bc 00 	sts	0x00BC, r24
    while (!(TWCR & (1 << TWINT)));
     b08:	80 91 bc 00 	lds	r24, 0x00BC
     b0c:	87 ff       	sbrs	r24, 7
     b0e:	fc cf       	rjmp	.-8      	; 0xb08 <__stack+0x209>
    return TWDR;
     b10:	60 91 bb 00 	lds	r22, 0x00BB
    return (s == 0x18 || s == 0x28);   /* SLA+W ACK or DATA ACK */
}

static uint8_t i2c_read(uint8_t send_ack)
{
    TWCR = (1 << TWINT) | (1 << TWEN) | (send_ack ? (1 << TWEA) : 0);
     b14:	84 ec       	ldi	r24, 0xC4	; 196
     b16:	80 93 bc 00 	sts	0x00BC, r24
    while (!(TWCR & (1 << TWINT)));
     b1a:	80 91 bc 00 	lds	r24, 0x00BC
     b1e:	87 ff       	sbrs	r24, 7
     b20:	fc cf       	rjmp	.-8      	; 0xb1a <__stack+0x21b>
    return TWDR;
     b22:	a0 90 bb 00 	lds	r10, 0x00BB
    return (s == 0x18 || s == 0x28);   /* SLA+W ACK or DATA ACK */
}

static uint8_t i2c_read(uint8_t send_ack)
{
    TWCR = (1 << TWINT) | (1 << TWEN) | (send_ack ? (1 << TWEA) : 0);
     b26:	84 ec       	ldi	r24, 0xC4	; 196
     b28:	80 93 bc 00 	sts	0x00BC, r24
    while (!(TWCR & (1 << TWINT)));
     b2c:	80 91 bc 00 	lds	r24, 0x00BC
     b30:	87 ff       	sbrs	r24, 7
     b32:	fc cf       	rjmp	.-8      	; 0xb2c <__stack+0x22d>
    return TWDR;
     b34:	10 91 bb 00 	lds	r17, 0x00BB
    return (s == 0x18 || s == 0x28);   /* SLA+W ACK or DATA ACK */
}

static uint8_t i2c_read(uint8_t send_ack)
{
    TWCR = (1 << TWINT) | (1 << TWEN) | (send_ack ? (1 << TWEA) : 0);
     b38:	84 e8       	ldi	r24, 0x84	; 132
     b3a:	80 93 bc 00 	sts	0x00BC, r24
    while (!(TWCR & (1 << TWINT)));
     b3e:	80 91 bc 00 	lds	r24, 0x00BC
     b42:	87 ff       	sbrs	r24, 7
     b44:	fc cf       	rjmp	.-8      	; 0xb3e <__stack+0x23f>
    return TWDR;
     b46:	e0 90 bb 00 	lds	r14, 0x00BB
    return (s == 0x08 || s == 0x10);   /* START or REP_START */
}

static void i2c_stop(void)
{
    TWCR = (1 << TWINT) | (1 << TWSTO) | (1 << TWEN);
     b4a:	84 e9       	ldi	r24, 0x94	; 148
     b4c:	80 93 bc 00 	sts	0x00BC, r24
    i2c_stop();

    uint32_t H = ((uint32_t)b[1]<<12)|((uint32_t)b[2]<<4)|(b[3]>>4);
    uint32_t T = (((uint32_t)b[3]&0x0F)<<16)|((uint32_t)b[4]<<8)|b[5];

    *hp10 = (uint16_t)((H * 1000UL) >> 20);
     b50:	70 e0       	ldi	r23, 0x00	; 0
     b52:	80 e0       	ldi	r24, 0x00	; 0
     b54:	90 e0       	ldi	r25, 0x00	; 0
     b56:	04 e0       	ldi	r16, 0x04	; 4
     b58:	66 0f       	add	r22, r22
     b5a:	77 1f       	adc	r23, r23
     b5c:	88 1f       	adc	r24, r24
     b5e:	99 1f       	adc	r25, r25
     b60:	0a 95       	dec	r16
     b62:	d1 f7       	brne	.-12     	; 0xb58 <__stack+0x259>
     b64:	30 e0       	ldi	r19, 0x00	; 0
     b66:	40 e0       	ldi	r20, 0x00	; 0
     b68:	50 e0       	ldi	r21, 0x00	; 0
     b6a:	bc e0       	ldi	r27, 0x0C	; 12
     b6c:	22 0f       	add	r18, r18
     b6e:	33 1f       	adc	r19, r19
     b70:	44 1f       	adc	r20, r20
     b72:	55 1f       	adc	r21, r21
     b74:	ba 95       	dec	r27
     b76:	d1 f7       	brne	.-12     	; 0xb6c <__stack+0x26d>
     b78:	62 2b       	or	r22, r18
     b7a:	73 2b       	or	r23, r19
     b7c:	84 2b       	or	r24, r20
     b7e:	95 2b       	or	r25, r21
     b80:	2a 2d       	mov	r18, r10
     b82:	22 95       	swap	r18
     b84:	2f 70       	andi	r18, 0x0F	; 15
     b86:	30 e0       	ldi	r19, 0x00	; 0
     b88:	40 e0       	ldi	r20, 0x00	; 0
     b8a:	50 e0       	ldi	r21, 0x00	; 0
     b8c:	62 2b       	or	r22, r18
     b8e:	73 2b       	or	r23, r19
     b90:	84 2b       	or	r24, r20
     b92:	95 2b       	or	r25, r21
     b94:	28 ee       	ldi	r18, 0xE8	; 232
     b96:	33 e0       	ldi	r19, 0x03	; 3
     b98:	40 e0       	ldi	r20, 0x00	; 0
     b9a:	50 e0       	ldi	r21, 0x00	; 0
     b9c:	0e 94 0e 0a 	call	0x141c	; 0x141c <__mulsi3>
     ba0:	a4 e1       	ldi	r26, 0x14	; 20
     ba2:	96 95       	lsr	r25
     ba4:	87 95       	ror	r24
     ba6:	77 95       	ror	r23
     ba8:	67 95       	ror	r22
     baa:	aa 95       	dec	r26
     bac:	d1 f7       	brne	.-12     	; 0xba2 <__stack+0x2a3>
     bae:	6b 01       	movw	r12, r22
    *tc10 = (int16_t)((int32_t)((T * 2000UL) >> 20) - 500);
     bb0:	61 2f       	mov	r22, r17
     bb2:	70 e0       	ldi	r23, 0x00	; 0
     bb4:	80 e0       	ldi	r24, 0x00	; 0
     bb6:	90 e0       	ldi	r25, 0x00	; 0
     bb8:	98 2f       	mov	r25, r24
     bba:	87 2f       	mov	r24, r23
     bbc:	76 2f       	mov	r23, r22
     bbe:	66 27       	eor	r22, r22
     bc0:	ff 24       	eor	r15, r15
     bc2:	00 e0       	ldi	r16, 0x00	; 0
     bc4:	10 e0       	ldi	r17, 0x00	; 0
     bc6:	6e 29       	or	r22, r14
     bc8:	7f 29       	or	r23, r15
     bca:	80 2b       	or	r24, r16
     bcc:	91 2b       	or	r25, r17
     bce:	2a 2d       	mov	r18, r10
     bd0:	30 e0       	ldi	r19, 0x00	; 0
     bd2:	40 e0       	ldi	r20, 0x00	; 0
     bd4:	50 e0       	ldi	r21, 0x00	; 0
     bd6:	2f 70       	andi	r18, 0x0F	; 15
     bd8:	30 70       	andi	r19, 0x00	; 0
     bda:	40 70       	andi	r20, 0x00	; 0
     bdc:	50 70       	andi	r21, 0x00	; 0
     bde:	a9 01       	movw	r20, r18
     be0:	33 27       	eor	r19, r19
     be2:	22 27       	eor	r18, r18
     be4:	62 2b       	or	r22, r18
     be6:	73 2b       	or	r23, r19
     be8:	84 2b       	or	r24, r20
     bea:	95 2b       	or	r25, r21
     bec:	20 ed       	ldi	r18, 0xD0	; 208
     bee:	37 e0       	ldi	r19, 0x07	; 7
     bf0:	40 e0       	ldi	r20, 0x00	; 0
     bf2:	50 e0       	ldi	r21, 0x00	; 0
     bf4:	0e 94 0e 0a 	call	0x141c	; 0x141c <__mulsi3>
     bf8:	54 e1       	ldi	r21, 0x14	; 20
     bfa:	96 95       	lsr	r25
     bfc:	87 95       	ror	r24
     bfe:	77 95       	ror	r23
     c00:	67 95       	ror	r22
     c02:	5a 95       	dec	r21
     c04:	d1 f7       	brne	.-12     	; 0xbfa <__stack+0x2fb>
     c06:	8b 01       	movw	r16, r22
     c08:	04 5f       	subi	r16, 0xF4	; 244
     c0a:	11 40       	sbci	r17, 0x01	; 1
#define HUM_MED_LO   285    /* 28.5 % — drop to NORMAL */
#define HUM_HIGH_LO  685    /* 68.5 % — drop to MEDIUM */

static State fsm_next(State cur, uint16_t h10)
{
    switch (cur) {
     c0c:	91 e0       	ldi	r25, 0x01	; 1
     c0e:	89 16       	cp	r8, r25
     c10:	91 04       	cpc	r9, r1
     c12:	c9 f0       	breq	.+50     	; 0xc46 <__stack+0x347>
     c14:	e1 e0       	ldi	r30, 0x01	; 1
     c16:	8e 16       	cp	r8, r30
     c18:	91 04       	cpc	r9, r1
     c1a:	28 f0       	brcs	.+10     	; 0xc26 <__stack+0x327>
     c1c:	f2 e0       	ldi	r31, 0x02	; 2
     c1e:	8f 16       	cp	r8, r31
     c20:	91 04       	cpc	r9, r1
     c22:	b1 f5       	brne	.+108    	; 0xc90 <__stack+0x391>
     c24:	21 c0       	rjmp	.+66     	; 0xc68 <__stack+0x369>
        case ST_NORMAL:
            if (h10 >= HUM_HIGH_HI) return ST_HIGH;
     c26:	26 ec       	ldi	r18, 0xC6	; 198
     c28:	c2 16       	cp	r12, r18
     c2a:	22 e0       	ldi	r18, 0x02	; 2
     c2c:	d2 06       	cpc	r13, r18
     c2e:	68 f5       	brcc	.+90     	; 0xc8a <__stack+0x38b>
     c30:	80 e0       	ldi	r24, 0x00	; 0
     c32:	90 e0       	ldi	r25, 0x00	; 0
     c34:	e6 e3       	ldi	r30, 0x36	; 54
     c36:	ce 16       	cp	r12, r30
     c38:	e1 e0       	ldi	r30, 0x01	; 1
     c3a:	de 06       	cpc	r13, r30
     c3c:	10 f0       	brcs	.+4      	; 0xc42 <__stack+0x343>
     c3e:	81 e0       	ldi	r24, 0x01	; 1
     c40:	90 e0       	ldi	r25, 0x00	; 0
     c42:	4c 01       	movw	r8, r24
     c44:	25 c0       	rjmp	.+74     	; 0xc90 <__stack+0x391>
            if (h10 >= HUM_MED_HI)  return ST_MEDIUM;
            break;
        case ST_MEDIUM:
            if (h10 >= HUM_HIGH_HI) return ST_HIGH;
     c46:	f6 ec       	ldi	r31, 0xC6	; 198
     c48:	cf 16       	cp	r12, r31
     c4a:	f2 e0       	ldi	r31, 0x02	; 2
     c4c:	df 06       	cpc	r13, r31
     c4e:	e8 f4       	brcc	.+58     	; 0xc8a <__stack+0x38b>
     c50:	90 e0       	ldi	r25, 0x00	; 0
     c52:	2e e1       	ldi	r18, 0x1E	; 30
     c54:	c2 16       	cp	r12, r18
     c56:	21 e0       	ldi	r18, 0x01	; 1
     c58:	d2 06       	cpc	r13, r18
     c5a:	08 f4       	brcc	.+2      	; 0xc5e <__stack+0x35f>
     c5c:	91 e0       	ldi	r25, 0x01	; 1
     c5e:	81 e0       	ldi	r24, 0x01	; 1
     c60:	98 27       	eor	r25, r24
     c62:	89 2e       	mov	r8, r25
     c64:	99 24       	eor	r9, r9
     c66:	14 c0       	rjmp	.+40     	; 0xc90 <__stack+0x391>
            if (h10 <= HUM_MED_LO)  return ST_NORMAL;
            break;
        case ST_HIGH:
            if (h10 <= HUM_MED_LO)  return ST_NORMAL;
     c68:	8e e1       	ldi	r24, 0x1E	; 30
     c6a:	c8 16       	cp	r12, r24
     c6c:	81 e0       	ldi	r24, 0x01	; 1
     c6e:	d8 06       	cpc	r13, r24
     c70:	18 f4       	brcc	.+6      	; 0xc78 <__stack+0x379>
     c72:	88 24       	eor	r8, r8
     c74:	99 24       	eor	r9, r9
     c76:	0c c0       	rjmp	.+24     	; 0xc90 <__stack+0x391>
            if (h10 <= HUM_HIGH_LO) return ST_MEDIUM;
     c78:	9e ea       	ldi	r25, 0xAE	; 174
     c7a:	c9 16       	cp	r12, r25
     c7c:	92 e0       	ldi	r25, 0x02	; 2
     c7e:	d9 06       	cpc	r13, r25
     c80:	38 f4       	brcc	.+14     	; 0xc90 <__stack+0x391>
     c82:	41 e0       	ldi	r20, 0x01	; 1
     c84:	84 2e       	mov	r8, r20
     c86:	91 2c       	mov	r9, r1
     c88:	03 c0       	rjmp	.+6      	; 0xc90 <__stack+0x391>
     c8a:	32 e0       	ldi	r19, 0x02	; 2
     c8c:	83 2e       	mov	r8, r19
     c8e:	91 2c       	mov	r9, r1
static uint8_t  gi = 0;     /* next write index    */
static uint8_t  gc = 0;     /* count of valid entries */

static void gpush(int16_t t, uint16_t h)
{
    gt[gi] = t; gh[gi] = h;
     c90:	80 91 e0 03 	lds	r24, 0x03E0
     c94:	90 e0       	ldi	r25, 0x00	; 0
     c96:	fc 01       	movw	r30, r24
     c98:	ee 0f       	add	r30, r30
     c9a:	ff 1f       	adc	r31, r31
     c9c:	df 01       	movw	r26, r30
     c9e:	ae 51       	subi	r26, 0x1E	; 30
     ca0:	bc 4f       	sbci	r27, 0xFC	; 252
     ca2:	0d 93       	st	X+, r16
     ca4:	1c 93       	st	X, r17
     ca6:	e4 5f       	subi	r30, 0xF4	; 244
     ca8:	fb 4f       	sbci	r31, 0xFB	; 251
     caa:	d1 82       	std	Z+1, r13	; 0x01
     cac:	c0 82       	st	Z, r12
    gi = (uint8_t)((gi + 1) % GLEN);
     cae:	01 96       	adiw	r24, 0x01	; 1
     cb0:	65 e1       	ldi	r22, 0x15	; 21
     cb2:	70 e0       	ldi	r23, 0x00	; 0
     cb4:	0e 94 4d 0a 	call	0x149a	; 0x149a <__divmodhi4>
     cb8:	80 93 e0 03 	sts	0x03E0, r24
    if (gc < GLEN) gc++;
     cbc:	80 91 e1 03 	lds	r24, 0x03E1
     cc0:	85 31       	cpi	r24, 0x15	; 21
     cc2:	18 f4       	brcc	.+6      	; 0xcca <__stack+0x3cb>
     cc4:	8f 5f       	subi	r24, 0xFF	; 255
     cc6:	80 93 e1 03 	sts	0x03E1, r24

        /* Step 3: Push to graph history */
        gpush(T, H);

        /* Step 4: Render screen */
        if (redraw) {
     cca:	bb 20       	and	r11, r11
     ccc:	11 f0       	breq	.+4      	; 0xcd2 <__stack+0x3d3>
            oled_clear();
     cce:	0e 94 b1 01 	call	0x362	; 0x362 <oled_clear>
            redraw = 0;
        }
        switch (sc) {
     cd2:	e2 e0       	ldi	r30, 0x02	; 2
     cd4:	2e 16       	cp	r2, r30
     cd6:	09 f4       	brne	.+2      	; 0xcda <__stack+0x3db>
     cd8:	ad c0       	rjmp	.+346    	; 0xe34 <__stack+0x535>
     cda:	f3 e0       	ldi	r31, 0x03	; 3
     cdc:	2f 16       	cp	r2, r31
     cde:	09 f4       	brne	.+2      	; 0xce2 <__stack+0x3e3>
     ce0:	64 c1       	rjmp	.+712    	; 0xfaa <__stack+0x6ab>
     ce2:	21 e0       	ldi	r18, 0x01	; 1
     ce4:	22 16       	cp	r2, r18
     ce6:	09 f0       	breq	.+2      	; 0xcea <__stack+0x3eb>
     ce8:	61 c2       	rjmp	.+1218   	; 0x11ac <__stack+0x8ad>

static void draw_info(State st, uint16_t h10)
{
    char buf[22]; uint8_t len;

    oled_row(0, 0xFF);
     cea:	80 e0       	ldi	r24, 0x00	; 0
     cec:	6f ef       	ldi	r22, 0xFF	; 255
     cee:	0e 94 c5 01 	call	0x38a	; 0x38a <oled_row>
    oled_str(0, 10, "  SYSTEM INFO  ");
     cf2:	80 e0       	ldi	r24, 0x00	; 0
     cf4:	6a e0       	ldi	r22, 0x0A	; 10
     cf6:	46 e3       	ldi	r20, 0x36	; 54
     cf8:	52 e0       	ldi	r21, 0x02	; 2
     cfa:	0e 94 09 02 	call	0x412	; 0x412 <oled_str>
    oled_row(1, 0xFF);
     cfe:	81 e0       	ldi	r24, 0x01	; 1
     d00:	6f ef       	ldi	r22, 0xFF	; 255
     d02:	0e 94 c5 01 	call	0x38a	; 0x38a <oled_row>

    /* State */
    oled_clr_row(2);
     d06:	82 e0       	ldi	r24, 0x02	; 2
     d08:	0e 94 d5 01 	call	0x3aa	; 0x3aa <oled_clr_row>
    switch (st) {
     d0c:	81 14       	cp	r8, r1
     d0e:	91 04       	cpc	r9, r1
     d10:	29 f0       	breq	.+10     	; 0xd1c <__stack+0x41d>
     d12:	81 e0       	ldi	r24, 0x01	; 1
     d14:	88 16       	cp	r8, r24
     d16:	91 04       	cpc	r9, r1
     d18:	59 f4       	brne	.+22     	; 0xd30 <__stack+0x431>
     d1a:	05 c0       	rjmp	.+10     	; 0xd26 <__stack+0x427>
        case ST_NORMAL: oled_str(2, 2, "State: NORMAL       "); break;
     d1c:	82 e0       	ldi	r24, 0x02	; 2
     d1e:	62 e0       	ldi	r22, 0x02	; 2
     d20:	46 e4       	ldi	r20, 0x46	; 70
     d22:	52 e0       	ldi	r21, 0x02	; 2
     d24:	09 c0       	rjmp	.+18     	; 0xd38 <__stack+0x439>
        case ST_MEDIUM: oled_str(2, 2, "State: MEDIUM ALERT "); break;
     d26:	82 e0       	ldi	r24, 0x02	; 2
     d28:	62 e0       	ldi	r22, 0x02	; 2
     d2a:	4b e5       	ldi	r20, 0x5B	; 91
     d2c:	52 e0       	ldi	r21, 0x02	; 2
     d2e:	04 c0       	rjmp	.+8      	; 0xd38 <__stack+0x439>
        default:        oled_str(2, 2, "State: HIGH ALERT!! "); break;
     d30:	82 e0       	ldi	r24, 0x02	; 2
     d32:	62 e0       	ldi	r22, 0x02	; 2
     d34:	40 e7       	ldi	r20, 0x70	; 112
     d36:	52 e0       	ldi	r21, 0x02	; 2
     d38:	0e 94 09 02 	call	0x412	; 0x412 <oled_str>
    }

    oled_row(3, 0x08);
     d3c:	83 e0       	ldi	r24, 0x03	; 3
     d3e:	68 e0       	ldi	r22, 0x08	; 8
     d40:	0e 94 c5 01 	call	0x38a	; 0x38a <oled_row>

    /* LEDs */
    oled_clr_row(4);
     d44:	84 e0       	ldi	r24, 0x04	; 4
     d46:	0e 94 d5 01 	call	0x3aa	; 0x3aa <oled_clr_row>
    switch (st) {
     d4a:	81 14       	cp	r8, r1
     d4c:	91 04       	cpc	r9, r1
     d4e:	29 f0       	breq	.+10     	; 0xd5a <__stack+0x45b>
     d50:	91 e0       	ldi	r25, 0x01	; 1
     d52:	89 16       	cp	r8, r25
     d54:	91 04       	cpc	r9, r1
     d56:	59 f4       	brne	.+22     	; 0xd6e <__stack+0x46f>
     d58:	05 c0       	rjmp	.+10     	; 0xd64 <__stack+0x465>
        case ST_NORMAL:
            oled_str(4, 2, "LED: GRN  ylw  red"); break;
     d5a:	84 e0       	ldi	r24, 0x04	; 4
     d5c:	62 e0       	ldi	r22, 0x02	; 2
     d5e:	45 e8       	ldi	r20, 0x85	; 133
     d60:	52 e0       	ldi	r21, 0x02	; 2
     d62:	09 c0       	rjmp	.+18     	; 0xd76 <__stack+0x477>
        case ST_MEDIUM:
            oled_str(4, 2, "LED: GRN  YLW  red"); break;
     d64:	84 e0       	ldi	r24, 0x04	; 4
     d66:	62 e0       	ldi	r22, 0x02	; 2
     d68:	48 e9       	ldi	r20, 0x98	; 152
     d6a:	52 e0       	ldi	r21, 0x02	; 2
     d6c:	04 c0       	rjmp	.+8      	; 0xd76 <__stack+0x477>
        default:
            oled_str(4, 2, "LED: GRN  YLW  RED"); break;
     d6e:	84 e0       	ldi	r24, 0x04	; 4
     d70:	62 e0       	ldi	r22, 0x02	; 2
     d72:	4b ea       	ldi	r20, 0xAB	; 171
     d74:	52 e0       	ldi	r21, 0x02	; 2
     d76:	0e 94 09 02 	call	0x412	; 0x412 <oled_str>
    }

    /* Fan + Buzzer */
    oled_clr_row(5);
     d7a:	85 e0       	ldi	r24, 0x05	; 5
     d7c:	0e 94 d5 01 	call	0x3aa	; 0x3aa <oled_clr_row>
    switch (st) {
     d80:	81 14       	cp	r8, r1
     d82:	91 04       	cpc	r9, r1
     d84:	29 f0       	breq	.+10     	; 0xd90 <__stack+0x491>
     d86:	e1 e0       	ldi	r30, 0x01	; 1
     d88:	8e 16       	cp	r8, r30
     d8a:	91 04       	cpc	r9, r1
     d8c:	59 f4       	brne	.+22     	; 0xda4 <__stack+0x4a5>
     d8e:	05 c0       	rjmp	.+10     	; 0xd9a <__stack+0x49b>
        case ST_NORMAL:
            oled_str(5, 2, "Fan:OFF  Buz:OFF  "); break;
     d90:	85 e0       	ldi	r24, 0x05	; 5
     d92:	62 e0       	ldi	r22, 0x02	; 2
     d94:	4e eb       	ldi	r20, 0xBE	; 190
     d96:	52 e0       	ldi	r21, 0x02	; 2
     d98:	09 c0       	rjmp	.+18     	; 0xdac <__stack+0x4ad>
        case ST_MEDIUM:
            oled_str(5, 2, "Fan:40%  Buz:INT  "); break;
     d9a:	85 e0       	ldi	r24, 0x05	; 5
     d9c:	62 e0       	ldi	r22, 0x02	; 2
     d9e:	41 ed       	ldi	r20, 0xD1	; 209
     da0:	52 e0       	ldi	r21, 0x02	; 2
     da2:	04 c0       	rjmp	.+8      	; 0xdac <__stack+0x4ad>
        default:
            oled_str(5, 2, "Fan:90%  Buz:ON   "); break;
     da4:	85 e0       	ldi	r24, 0x05	; 5
     da6:	62 e0       	ldi	r22, 0x02	; 2
     da8:	44 ee       	ldi	r20, 0xE4	; 228
     daa:	52 e0       	ldi	r21, 0x02	; 2
     dac:	0e 94 09 02 	call	0x412	; 0x412 <oled_str>
    }

    /* Humidity reading + threshold note */
    oled_clr_row(6);
     db0:	86 e0       	ldi	r24, 0x06	; 6
     db2:	0e 94 d5 01 	call	0x3aa	; 0x3aa <oled_clr_row>
    strcpy(buf, "Hum:");
     db6:	c2 01       	movw	r24, r4
     db8:	67 ef       	ldi	r22, 0xF7	; 247
     dba:	72 e0       	ldi	r23, 0x02	; 2
     dbc:	0e 94 a8 0a 	call	0x1550	; 0x1550 <strcpy>
    fmt1(buf + 4, (int16_t)h10);
     dc0:	ce 01       	movw	r24, r28
     dc2:	47 96       	adiw	r24, 0x17	; 23
     dc4:	b6 01       	movw	r22, r12
     dc6:	0e 94 1d 02 	call	0x43a	; 0x43a <fmt1>
    len = (uint8_t)strlen(buf);
     dca:	f2 01       	movw	r30, r4
     dcc:	01 90       	ld	r0, Z+
     dce:	00 20       	and	r0, r0
     dd0:	e9 f7       	brne	.-6      	; 0xdcc <__stack+0x4cd>
     dd2:	31 97       	sbiw	r30, 0x01	; 1
     dd4:	e4 19       	sub	r30, r4
    buf[len++] = '%'; buf[len] = '\0';
     dd6:	d2 01       	movw	r26, r4
     dd8:	ae 0f       	add	r26, r30
     dda:	b1 1d       	adc	r27, r1
     ddc:	85 e2       	ldi	r24, 0x25	; 37
     dde:	8c 93       	st	X, r24
     de0:	ef 5f       	subi	r30, 0xFF	; 255
     de2:	d2 01       	movw	r26, r4
     de4:	ae 0f       	add	r26, r30
     de6:	b1 1d       	adc	r27, r1
     de8:	1c 92       	st	X, r1
    /* append threshold reference */
    if (len < 18) {
     dea:	e2 31       	cpi	r30, 0x12	; 18
     dec:	a8 f4       	brcc	.+42     	; 0xe18 <__stack+0x519>
        switch (st) {
     dee:	81 14       	cp	r8, r1
     df0:	91 04       	cpc	r9, r1
     df2:	29 f0       	breq	.+10     	; 0xdfe <__stack+0x4ff>
     df4:	f1 e0       	ldi	r31, 0x01	; 1
     df6:	8f 16       	cp	r8, r31
     df8:	91 04       	cpc	r9, r1
     dfa:	49 f4       	brne	.+18     	; 0xe0e <__stack+0x50f>
     dfc:	04 c0       	rjmp	.+8      	; 0xe06 <__stack+0x507>
            case ST_NORMAL: strcat(buf, " (<30%)"); break;
     dfe:	c2 01       	movw	r24, r4
     e00:	6c ef       	ldi	r22, 0xFC	; 252
     e02:	72 e0       	ldi	r23, 0x02	; 2
     e04:	07 c0       	rjmp	.+14     	; 0xe14 <__stack+0x515>
            case ST_MEDIUM: strcat(buf, " (<70%)"); break;
     e06:	c2 01       	movw	r24, r4
     e08:	64 e0       	ldi	r22, 0x04	; 4
     e0a:	73 e0       	ldi	r23, 0x03	; 3
     e0c:	03 c0       	rjmp	.+6      	; 0xe14 <__stack+0x515>
            default:        strcat(buf, " (>70%)"); break;
     e0e:	c2 01       	movw	r24, r4
     e10:	6c e0       	ldi	r22, 0x0C	; 12
     e12:	73 e0       	ldi	r23, 0x03	; 3
     e14:	0e 94 9d 0a 	call	0x153a	; 0x153a <strcat>
        }
    }
    oled_str(6, 2, buf);
     e18:	86 e0       	ldi	r24, 0x06	; 6
     e1a:	62 e0       	ldi	r22, 0x02	; 2
     e1c:	a2 01       	movw	r20, r4
     e1e:	0e 94 09 02 	call	0x412	; 0x412 <oled_str>

    oled_row(7, 0x80);
     e22:	87 e0       	ldi	r24, 0x07	; 7
     e24:	60 e8       	ldi	r22, 0x80	; 128
     e26:	0e 94 c5 01 	call	0x38a	; 0x38a <oled_row>
    oled_str(7, 2, "[<]Graph[M]Main[>]Main");
     e2a:	87 e0       	ldi	r24, 0x07	; 7
     e2c:	62 e0       	ldi	r22, 0x02	; 2
     e2e:	44 e1       	ldi	r20, 0x14	; 20
     e30:	53 e0       	ldi	r21, 0x03	; 3
     e32:	b4 c1       	rjmp	.+872    	; 0x119c <__stack+0x89d>
 * ============================================================================ */

static void draw_graph_temp(void)
{
    uint8_t i, col, c, r;
    oled_clear();
     e34:	0e 94 b1 01 	call	0x362	; 0x362 <oled_clear>

    oled_row(0, 0xFF);
     e38:	80 e0       	ldi	r24, 0x00	; 0
     e3a:	6f ef       	ldi	r22, 0xFF	; 255
     e3c:	0e 94 c5 01 	call	0x38a	; 0x38a <oled_row>
    oled_str(0, 8, " TEMP HISTORY(C)");
     e40:	80 e0       	ldi	r24, 0x00	; 0
     e42:	68 e0       	ldi	r22, 0x08	; 8
     e44:	4b e2       	ldi	r20, 0x2B	; 43
     e46:	53 e0       	ldi	r21, 0x03	; 3
     e48:	0e 94 09 02 	call	0x412	; 0x412 <oled_str>

    oled_str(2, 0, "50");
     e4c:	82 e0       	ldi	r24, 0x02	; 2
     e4e:	60 e0       	ldi	r22, 0x00	; 0
     e50:	4c e3       	ldi	r20, 0x3C	; 60
     e52:	53 e0       	ldi	r21, 0x03	; 3
     e54:	0e 94 09 02 	call	0x412	; 0x412 <oled_str>
    oled_str(4, 0, "25");
     e58:	84 e0       	ldi	r24, 0x04	; 4
     e5a:	60 e0       	ldi	r22, 0x00	; 0
     e5c:	4f e3       	ldi	r20, 0x3F	; 63
     e5e:	53 e0       	ldi	r21, 0x03	; 3
     e60:	0e 94 09 02 	call	0x412	; 0x412 <oled_str>
    oled_str(6, 0, " 0");
     e64:	86 e0       	ldi	r24, 0x06	; 6
     e66:	60 e0       	ldi	r22, 0x00	; 0
     e68:	42 e4       	ldi	r20, 0x42	; 66
     e6a:	53 e0       	ldi	r21, 0x03	; 3
     e6c:	0e 94 09 02 	call	0x412	; 0x412 <oled_str>
     e70:	10 e0       	ldi	r17, 0x00	; 0

    /* Y-axis */
    for (r = 0; r < 40; r++) gdot(14, r);
     e72:	8e e0       	ldi	r24, 0x0E	; 14
     e74:	61 2f       	mov	r22, r17
     e76:	0e 94 f5 02 	call	0x5ea	; 0x5ea <gdot>
     e7a:	1f 5f       	subi	r17, 0xFF	; 255
     e7c:	18 32       	cpi	r17, 0x28	; 40
     e7e:	c9 f7       	brne	.-14     	; 0xe72 <__stack+0x573>
     e80:	10 e1       	ldi	r17, 0x10	; 16
    /* 25 °C dotted guide */
    for (c = 16; c < SCR_W; c += 5) gdot(c, 20);
     e82:	81 2f       	mov	r24, r17
     e84:	64 e1       	ldi	r22, 0x14	; 20
     e86:	0e 94 f5 02 	call	0x5ea	; 0x5ea <gdot>
     e8a:	1b 5f       	subi	r17, 0xFB	; 251
     e8c:	13 38       	cpi	r17, 0x83	; 131
     e8e:	c9 f7       	brne	.-14     	; 0xe82 <__stack+0x583>

    {
        uint8_t s = (gc < GLEN) ? 0 : gi;
     e90:	30 90 e1 03 	lds	r3, 0x03E1
     e94:	24 e1       	ldi	r18, 0x14	; 20
     e96:	23 15       	cp	r18, r3
     e98:	10 f0       	brcs	.+4      	; 0xe9e <__stack+0x59f>
     e9a:	80 e0       	ldi	r24, 0x00	; 0
     e9c:	02 c0       	rjmp	.+4      	; 0xea2 <__stack+0x5a3>
     e9e:	80 91 e0 03 	lds	r24, 0x03E0
     ea2:	cc 24       	eor	r12, r12
     ea4:	dd 24       	eor	r13, r13
     ea6:	10 e1       	ldi	r17, 0x10	; 16
     ea8:	b1 2e       	mov	r11, r17
        for (i = 0; i < gc; i++) {
            uint8_t di   = (uint8_t)((s + i) % GLEN);
            uint8_t prow = gmap(gt[di], 0, 500);
     eaa:	68 2e       	mov	r6, r24
     eac:	77 24       	eor	r7, r7
     eae:	3a c0       	rjmp	.+116    	; 0xf24 <__stack+0x625>
     eb0:	c6 01       	movw	r24, r12
     eb2:	86 0d       	add	r24, r6
     eb4:	97 1d       	adc	r25, r7
     eb6:	65 e1       	ldi	r22, 0x15	; 21
     eb8:	70 e0       	ldi	r23, 0x00	; 0
     eba:	0e 94 4d 0a 	call	0x149a	; 0x149a <__divmodhi4>
     ebe:	e8 2f       	mov	r30, r24
     ec0:	f0 e0       	ldi	r31, 0x00	; 0
     ec2:	ee 0f       	add	r30, r30
     ec4:	ff 1f       	adc	r31, r31
     ec6:	ee 51       	subi	r30, 0x1E	; 30
     ec8:	fc 4f       	sbci	r31, 0xFC	; 252
     eca:	01 90       	ld	r0, Z+
     ecc:	f0 81       	ld	r31, Z
     ece:	e0 2d       	mov	r30, r0
     ed0:	08 94       	sec
     ed2:	c1 1c       	adc	r12, r1
     ed4:	d1 1c       	adc	r13, r1
     ed6:	a5 e0       	ldi	r26, 0x05	; 5
     ed8:	aa 2e       	mov	r10, r26
     eda:	ab 0c       	add	r10, r11
            col = (uint8_t)(16 + i * 5);
            if (col + 2 >= SCR_W) break;
     edc:	83 e8       	ldi	r24, 0x83	; 131
     ede:	a8 16       	cp	r10, r24
     ee0:	19 f1       	breq	.+70     	; 0xf28 <__stack+0x629>

    {
        uint8_t s = (gc < GLEN) ? 0 : gi;
        for (i = 0; i < gc; i++) {
            uint8_t di   = (uint8_t)((s + i) % GLEN);
            uint8_t prow = gmap(gt[di], 0, 500);
     ee2:	bf 01       	movw	r22, r30
     ee4:	88 27       	eor	r24, r24
     ee6:	77 fd       	sbrc	r23, 7
     ee8:	80 95       	com	r24
     eea:	98 2f       	mov	r25, r24
     eec:	20 e0       	ldi	r18, 0x00	; 0
     eee:	30 e0       	ldi	r19, 0x00	; 0
     ef0:	40 e0       	ldi	r20, 0x00	; 0
     ef2:	50 e0       	ldi	r21, 0x00	; 0
     ef4:	e4 ef       	ldi	r30, 0xF4	; 244
     ef6:	ee 2e       	mov	r14, r30
     ef8:	e1 e0       	ldi	r30, 0x01	; 1
     efa:	fe 2e       	mov	r15, r30
     efc:	01 2d       	mov	r16, r1
     efe:	11 2d       	mov	r17, r1
     f00:	0e 94 7a 02 	call	0x4f4	; 0x4f4 <gmap>
     f04:	18 2f       	mov	r17, r24
            col = (uint8_t)(16 + i * 5);
            if (col + 2 >= SCR_W) break;
            gbar(col, prow); gbar((uint8_t)(col+1), prow); gbar((uint8_t)(col+2), prow);
     f06:	8b 2d       	mov	r24, r11
     f08:	61 2f       	mov	r22, r17
     f0a:	0e 94 af 02 	call	0x55e	; 0x55e <gbar>
     f0e:	8b 2d       	mov	r24, r11
     f10:	8f 5f       	subi	r24, 0xFF	; 255
     f12:	61 2f       	mov	r22, r17
     f14:	0e 94 af 02 	call	0x55e	; 0x55e <gbar>
     f18:	8b 2d       	mov	r24, r11
     f1a:	8e 5f       	subi	r24, 0xFE	; 254
     f1c:	61 2f       	mov	r22, r17
     f1e:	0e 94 af 02 	call	0x55e	; 0x55e <gbar>
     f22:	ba 2c       	mov	r11, r10
    /* 25 °C dotted guide */
    for (c = 16; c < SCR_W; c += 5) gdot(c, 20);

    {
        uint8_t s = (gc < GLEN) ? 0 : gi;
        for (i = 0; i < gc; i++) {
     f24:	c3 14       	cp	r12, r3
     f26:	20 f2       	brcs	.-120    	; 0xeb0 <__stack+0x5b1>
            if (col + 2 >= SCR_W) break;
            gbar(col, prow); gbar((uint8_t)(col+1), prow); gbar((uint8_t)(col+2), prow);
        }
    }

    oled_row(7, 0x80);
     f28:	87 e0       	ldi	r24, 0x07	; 7
     f2a:	60 e8       	ldi	r22, 0x80	; 128
     f2c:	0e 94 c5 01 	call	0x38a	; 0x38a <oled_row>
    {
        char b[18]; strcpy(b, "Now:");
     f30:	ce 01       	movw	r24, r28
     f32:	01 96       	adiw	r24, 0x01	; 1
     f34:	65 e4       	ldi	r22, 0x45	; 69
     f36:	73 e0       	ldi	r23, 0x03	; 3
     f38:	0e 94 a8 0a 	call	0x1550	; 0x1550 <strcpy>
        uint8_t last = gi ? (uint8_t)(gi - 1) : (GLEN - 1);
     f3c:	e0 91 e0 03 	lds	r30, 0x03E0
     f40:	ee 23       	and	r30, r30
     f42:	11 f4       	brne	.+4      	; 0xf48 <__stack+0x649>
     f44:	e4 e1       	ldi	r30, 0x14	; 20
     f46:	01 c0       	rjmp	.+2      	; 0xf4a <__stack+0x64b>
     f48:	e1 50       	subi	r30, 0x01	; 1
        fmt1(b + 4, gt[last]);
     f4a:	f0 e0       	ldi	r31, 0x00	; 0
     f4c:	ee 0f       	add	r30, r30
     f4e:	ff 1f       	adc	r31, r31
     f50:	ee 51       	subi	r30, 0x1E	; 30
     f52:	fc 4f       	sbci	r31, 0xFC	; 252
     f54:	60 81       	ld	r22, Z
     f56:	71 81       	ldd	r23, Z+1	; 0x01
     f58:	ce 01       	movw	r24, r28
     f5a:	05 96       	adiw	r24, 0x05	; 5
     f5c:	0e 94 1d 02 	call	0x43a	; 0x43a <fmt1>
        uint8_t l = (uint8_t)strlen(b); b[l++] = 'C'; b[l] = '\0';
     f60:	ea a5       	ldd	r30, Y+42	; 0x2a
     f62:	fb a5       	ldd	r31, Y+43	; 0x2b
     f64:	01 90       	ld	r0, Z+
     f66:	00 20       	and	r0, r0
     f68:	e9 f7       	brne	.-6      	; 0xf64 <__stack+0x665>
     f6a:	31 97       	sbiw	r30, 0x01	; 1
     f6c:	9a a5       	ldd	r25, Y+42	; 0x2a
     f6e:	e9 1b       	sub	r30, r25
     f70:	a1 e0       	ldi	r26, 0x01	; 1
     f72:	b0 e0       	ldi	r27, 0x00	; 0
     f74:	ac 0f       	add	r26, r28
     f76:	bd 1f       	adc	r27, r29
     f78:	ae 0f       	add	r26, r30
     f7a:	b1 1d       	adc	r27, r1
     f7c:	83 e4       	ldi	r24, 0x43	; 67
     f7e:	8c 93       	st	X, r24
     f80:	ef 5f       	subi	r30, 0xFF	; 255
     f82:	81 e0       	ldi	r24, 0x01	; 1
     f84:	90 e0       	ldi	r25, 0x00	; 0
     f86:	8c 0f       	add	r24, r28
     f88:	9d 1f       	adc	r25, r29
     f8a:	8e 0f       	add	r24, r30
     f8c:	91 1d       	adc	r25, r1
     f8e:	fc 01       	movw	r30, r24
     f90:	10 82       	st	Z, r1
        oled_str(7, 2, b);
     f92:	87 e0       	ldi	r24, 0x07	; 7
     f94:	62 e0       	ldi	r22, 0x02	; 2
     f96:	ae 01       	movw	r20, r28
     f98:	4f 5f       	subi	r20, 0xFF	; 255
     f9a:	5f 4f       	sbci	r21, 0xFF	; 255
     f9c:	0e 94 09 02 	call	0x412	; 0x412 <oled_str>
    }
    oled_str(7, 68, "[<]Info[>]Hum");
     fa0:	87 e0       	ldi	r24, 0x07	; 7
     fa2:	64 e4       	ldi	r22, 0x44	; 68
     fa4:	4a e4       	ldi	r20, 0x4A	; 74
     fa6:	53 e0       	ldi	r21, 0x03	; 3
     fa8:	f9 c0       	rjmp	.+498    	; 0x119c <__stack+0x89d>
}

static void draw_graph_hum(void)
{
    uint8_t i, col, c, r;
    oled_clear();
     faa:	0e 94 b1 01 	call	0x362	; 0x362 <oled_clear>

    oled_row(0, 0xFF);
     fae:	80 e0       	ldi	r24, 0x00	; 0
     fb0:	6f ef       	ldi	r22, 0xFF	; 255
     fb2:	0e 94 c5 01 	call	0x38a	; 0x38a <oled_row>
    oled_str(0, 8, " HUM  HISTORY(%)");
     fb6:	80 e0       	ldi	r24, 0x00	; 0
     fb8:	68 e0       	ldi	r22, 0x08	; 8
     fba:	48 e5       	ldi	r20, 0x58	; 88
     fbc:	53 e0       	ldi	r21, 0x03	; 3
     fbe:	0e 94 09 02 	call	0x412	; 0x412 <oled_str>

    oled_str(2, 0, "99");
     fc2:	82 e0       	ldi	r24, 0x02	; 2
     fc4:	60 e0       	ldi	r22, 0x00	; 0
     fc6:	49 e6       	ldi	r20, 0x69	; 105
     fc8:	53 e0       	ldi	r21, 0x03	; 3
     fca:	0e 94 09 02 	call	0x412	; 0x412 <oled_str>
    oled_str(4, 0, "50");
     fce:	84 e0       	ldi	r24, 0x04	; 4
     fd0:	60 e0       	ldi	r22, 0x00	; 0
     fd2:	4c e3       	ldi	r20, 0x3C	; 60
     fd4:	53 e0       	ldi	r21, 0x03	; 3
     fd6:	0e 94 09 02 	call	0x412	; 0x412 <oled_str>
    oled_str(6, 0, " 0");
     fda:	86 e0       	ldi	r24, 0x06	; 6
     fdc:	60 e0       	ldi	r22, 0x00	; 0
     fde:	42 e4       	ldi	r20, 0x42	; 66
     fe0:	53 e0       	ldi	r21, 0x03	; 3
     fe2:	0e 94 09 02 	call	0x412	; 0x412 <oled_str>
     fe6:	10 e0       	ldi	r17, 0x00	; 0

    for (r = 0; r < 40; r++) gdot(14, r);
     fe8:	8e e0       	ldi	r24, 0x0E	; 14
     fea:	61 2f       	mov	r22, r17
     fec:	0e 94 f5 02 	call	0x5ea	; 0x5ea <gdot>
     ff0:	1f 5f       	subi	r17, 0xFF	; 255
     ff2:	18 32       	cpi	r17, 0x28	; 40
     ff4:	c9 f7       	brne	.-14     	; 0xfe8 <__stack+0x6e9>

    /* 30 % boundary (sparse dots) */
    { uint8_t r30 = gmap(300, 0, 1000); for(c=16;c<SCR_W;c+=8) gdot(c,r30); }
     ff6:	6c e2       	ldi	r22, 0x2C	; 44
     ff8:	71 e0       	ldi	r23, 0x01	; 1
     ffa:	80 e0       	ldi	r24, 0x00	; 0
     ffc:	90 e0       	ldi	r25, 0x00	; 0
     ffe:	20 e0       	ldi	r18, 0x00	; 0
    1000:	30 e0       	ldi	r19, 0x00	; 0
    1002:	40 e0       	ldi	r20, 0x00	; 0
    1004:	50 e0       	ldi	r21, 0x00	; 0
    1006:	a8 ee       	ldi	r26, 0xE8	; 232
    1008:	ea 2e       	mov	r14, r26
    100a:	a3 e0       	ldi	r26, 0x03	; 3
    100c:	fa 2e       	mov	r15, r26
    100e:	01 2d       	mov	r16, r1
    1010:	11 2d       	mov	r17, r1
    1012:	0e 94 7a 02 	call	0x4f4	; 0x4f4 <gmap>
    1016:	08 2f       	mov	r16, r24
    1018:	10 e1       	ldi	r17, 0x10	; 16
    101a:	81 2f       	mov	r24, r17
    101c:	60 2f       	mov	r22, r16
    101e:	0e 94 f5 02 	call	0x5ea	; 0x5ea <gdot>
    1022:	18 5f       	subi	r17, 0xF8	; 248
    1024:	10 38       	cpi	r17, 0x80	; 128
    1026:	c9 f7       	brne	.-14     	; 0x101a <__stack+0x71b>
    /* 50 % midline */
    { uint8_t r50 = gmap(500, 0, 1000); for(c=16;c<SCR_W;c+=5) gdot(c,r50); }
    1028:	64 ef       	ldi	r22, 0xF4	; 244
    102a:	71 e0       	ldi	r23, 0x01	; 1
    102c:	80 e0       	ldi	r24, 0x00	; 0
    102e:	90 e0       	ldi	r25, 0x00	; 0
    1030:	20 e0       	ldi	r18, 0x00	; 0
    1032:	30 e0       	ldi	r19, 0x00	; 0
    1034:	40 e0       	ldi	r20, 0x00	; 0
    1036:	50 e0       	ldi	r21, 0x00	; 0
    1038:	f8 ee       	ldi	r31, 0xE8	; 232
    103a:	ef 2e       	mov	r14, r31
    103c:	f3 e0       	ldi	r31, 0x03	; 3
    103e:	ff 2e       	mov	r15, r31
    1040:	01 2d       	mov	r16, r1
    1042:	11 2d       	mov	r17, r1
    1044:	0e 94 7a 02 	call	0x4f4	; 0x4f4 <gmap>
    1048:	08 2f       	mov	r16, r24
    104a:	10 e1       	ldi	r17, 0x10	; 16
    104c:	81 2f       	mov	r24, r17
    104e:	60 2f       	mov	r22, r16
    1050:	0e 94 f5 02 	call	0x5ea	; 0x5ea <gdot>
    1054:	1b 5f       	subi	r17, 0xFB	; 251
    1056:	13 38       	cpi	r17, 0x83	; 131
    1058:	c9 f7       	brne	.-14     	; 0x104c <__stack+0x74d>
    /* 70 % HIGH threshold (dense) */
    { uint8_t r70 = gmap(700, 0, 1000); for(c=16;c<SCR_W;c+=3) gdot(c,r70); }
    105a:	6c eb       	ldi	r22, 0xBC	; 188
    105c:	72 e0       	ldi	r23, 0x02	; 2
    105e:	80 e0       	ldi	r24, 0x00	; 0
    1060:	90 e0       	ldi	r25, 0x00	; 0
    1062:	20 e0       	ldi	r18, 0x00	; 0
    1064:	30 e0       	ldi	r19, 0x00	; 0
    1066:	40 e0       	ldi	r20, 0x00	; 0
    1068:	50 e0       	ldi	r21, 0x00	; 0
    106a:	e8 ee       	ldi	r30, 0xE8	; 232
    106c:	ee 2e       	mov	r14, r30
    106e:	e3 e0       	ldi	r30, 0x03	; 3
    1070:	fe 2e       	mov	r15, r30
    1072:	01 2d       	mov	r16, r1
    1074:	11 2d       	mov	r17, r1
    1076:	0e 94 7a 02 	call	0x4f4	; 0x4f4 <gmap>
    107a:	08 2f       	mov	r16, r24
    107c:	10 e1       	ldi	r17, 0x10	; 16
    107e:	81 2f       	mov	r24, r17
    1080:	60 2f       	mov	r22, r16
    1082:	0e 94 f5 02 	call	0x5ea	; 0x5ea <gdot>
    1086:	1d 5f       	subi	r17, 0xFD	; 253
    1088:	12 38       	cpi	r17, 0x82	; 130
    108a:	c9 f7       	brne	.-14     	; 0x107e <__stack+0x77f>

    {
        uint8_t s = (gc < GLEN) ? 0 : gi;
    108c:	30 90 e1 03 	lds	r3, 0x03E1
    1090:	94 e1       	ldi	r25, 0x14	; 20
    1092:	93 15       	cp	r25, r3
    1094:	10 f0       	brcs	.+4      	; 0x109a <__stack+0x79b>
    1096:	80 e0       	ldi	r24, 0x00	; 0
    1098:	02 c0       	rjmp	.+4      	; 0x109e <__stack+0x79f>
    109a:	80 91 e0 03 	lds	r24, 0x03E0
    109e:	cc 24       	eor	r12, r12
    10a0:	dd 24       	eor	r13, r13
    10a2:	b0 e1       	ldi	r27, 0x10	; 16
    10a4:	bb 2e       	mov	r11, r27
        for (i = 0; i < gc; i++) {
            uint8_t di   = (uint8_t)((s + i) % GLEN);
            uint8_t prow = gmap(gh[di], 0, 1000);
    10a6:	68 2e       	mov	r6, r24
    10a8:	77 24       	eor	r7, r7
    10aa:	36 c0       	rjmp	.+108    	; 0x1118 <__stack+0x819>
    10ac:	c6 01       	movw	r24, r12
    10ae:	86 0d       	add	r24, r6
    10b0:	97 1d       	adc	r25, r7
    10b2:	65 e1       	ldi	r22, 0x15	; 21
    10b4:	70 e0       	ldi	r23, 0x00	; 0
    10b6:	0e 94 4d 0a 	call	0x149a	; 0x149a <__divmodhi4>
    10ba:	e8 2f       	mov	r30, r24
    10bc:	f0 e0       	ldi	r31, 0x00	; 0
    10be:	ee 0f       	add	r30, r30
    10c0:	ff 1f       	adc	r31, r31
    10c2:	e4 5f       	subi	r30, 0xF4	; 244
    10c4:	fb 4f       	sbci	r31, 0xFB	; 251
    10c6:	60 81       	ld	r22, Z
    10c8:	71 81       	ldd	r23, Z+1	; 0x01
    10ca:	08 94       	sec
    10cc:	c1 1c       	adc	r12, r1
    10ce:	d1 1c       	adc	r13, r1
    10d0:	f5 e0       	ldi	r31, 0x05	; 5
    10d2:	af 2e       	mov	r10, r31
    10d4:	ab 0c       	add	r10, r11
            col = (uint8_t)(16 + i * 5);
            if (col + 2 >= SCR_W) break;
    10d6:	e3 e8       	ldi	r30, 0x83	; 131
    10d8:	ae 16       	cp	r10, r30
    10da:	01 f1       	breq	.+64     	; 0x111c <__stack+0x81d>

    {
        uint8_t s = (gc < GLEN) ? 0 : gi;
        for (i = 0; i < gc; i++) {
            uint8_t di   = (uint8_t)((s + i) % GLEN);
            uint8_t prow = gmap(gh[di], 0, 1000);
    10dc:	80 e0       	ldi	r24, 0x00	; 0
    10de:	90 e0       	ldi	r25, 0x00	; 0
    10e0:	20 e0       	ldi	r18, 0x00	; 0
    10e2:	30 e0       	ldi	r19, 0x00	; 0
    10e4:	40 e0       	ldi	r20, 0x00	; 0
    10e6:	50 e0       	ldi	r21, 0x00	; 0
    10e8:	e8 ee       	ldi	r30, 0xE8	; 232
    10ea:	ee 2e       	mov	r14, r30
    10ec:	e3 e0       	ldi	r30, 0x03	; 3
    10ee:	fe 2e       	mov	r15, r30
    10f0:	01 2d       	mov	r16, r1
    10f2:	11 2d       	mov	r17, r1
    10f4:	0e 94 7a 02 	call	0x4f4	; 0x4f4 <gmap>
    10f8:	18 2f       	mov	r17, r24
            col = (uint8_t)(16 + i * 5);
            if (col + 2 >= SCR_W) break;
            gbar(col, prow); gbar((uint8_t)(col+1), prow); gbar((uint8_t)(col+2), prow);
    10fa:	8b 2d       	mov	r24, r11
    10fc:	61 2f       	mov	r22, r17
    10fe:	0e 94 af 02 	call	0x55e	; 0x55e <gbar>
    1102:	8b 2d       	mov	r24, r11
    1104:	8f 5f       	subi	r24, 0xFF	; 255
    1106:	61 2f       	mov	r22, r17
    1108:	0e 94 af 02 	call	0x55e	; 0x55e <gbar>
    110c:	8b 2d       	mov	r24, r11
    110e:	8e 5f       	subi	r24, 0xFE	; 254
    1110:	61 2f       	mov	r22, r17
    1112:	0e 94 af 02 	call	0x55e	; 0x55e <gbar>
    1116:	ba 2c       	mov	r11, r10
    /* 70 % HIGH threshold (dense) */
    { uint8_t r70 = gmap(700, 0, 1000); for(c=16;c<SCR_W;c+=3) gdot(c,r70); }

    {
        uint8_t s = (gc < GLEN) ? 0 : gi;
        for (i = 0; i < gc; i++) {
    1118:	c3 14       	cp	r12, r3
    111a:	40 f2       	brcs	.-112    	; 0x10ac <__stack+0x7ad>
            if (col + 2 >= SCR_W) break;
            gbar(col, prow); gbar((uint8_t)(col+1), prow); gbar((uint8_t)(col+2), prow);
        }
    }

    oled_row(7, 0x80);
    111c:	87 e0       	ldi	r24, 0x07	; 7
    111e:	60 e8       	ldi	r22, 0x80	; 128
    1120:	0e 94 c5 01 	call	0x38a	; 0x38a <oled_row>
    {
        char b[18]; strcpy(b, "Now:");
    1124:	ce 01       	movw	r24, r28
    1126:	01 96       	adiw	r24, 0x01	; 1
    1128:	65 e4       	ldi	r22, 0x45	; 69
    112a:	73 e0       	ldi	r23, 0x03	; 3
    112c:	0e 94 a8 0a 	call	0x1550	; 0x1550 <strcpy>
        uint8_t last = gi ? (uint8_t)(gi - 1) : (GLEN - 1);
    1130:	e0 91 e0 03 	lds	r30, 0x03E0
    1134:	ee 23       	and	r30, r30
    1136:	11 f4       	brne	.+4      	; 0x113c <__stack+0x83d>
    1138:	e4 e1       	ldi	r30, 0x14	; 20
    113a:	01 c0       	rjmp	.+2      	; 0x113e <__stack+0x83f>
    113c:	e1 50       	subi	r30, 0x01	; 1
        fmt1(b + 4, (int16_t)gh[last]);
    113e:	f0 e0       	ldi	r31, 0x00	; 0
    1140:	ee 0f       	add	r30, r30
    1142:	ff 1f       	adc	r31, r31
    1144:	e4 5f       	subi	r30, 0xF4	; 244
    1146:	fb 4f       	sbci	r31, 0xFB	; 251
    1148:	60 81       	ld	r22, Z
    114a:	71 81       	ldd	r23, Z+1	; 0x01
    114c:	ce 01       	movw	r24, r28
    114e:	05 96       	adiw	r24, 0x05	; 5
    1150:	0e 94 1d 02 	call	0x43a	; 0x43a <fmt1>
        uint8_t l = (uint8_t)strlen(b); b[l++] = '%'; b[l] = '\0';
    1154:	ea a5       	ldd	r30, Y+42	; 0x2a
    1156:	fb a5       	ldd	r31, Y+43	; 0x2b
    1158:	01 90       	ld	r0, Z+
    115a:	00 20       	and	r0, r0
    115c:	e9 f7       	brne	.-6      	; 0x1158 <__stack+0x859>
    115e:	31 97       	sbiw	r30, 0x01	; 1
    1160:	2a a5       	ldd	r18, Y+42	; 0x2a
    1162:	e2 1b       	sub	r30, r18
    1164:	a1 e0       	ldi	r26, 0x01	; 1
    1166:	b0 e0       	ldi	r27, 0x00	; 0
    1168:	ac 0f       	add	r26, r28
    116a:	bd 1f       	adc	r27, r29
    116c:	ae 0f       	add	r26, r30
    116e:	b1 1d       	adc	r27, r1
    1170:	85 e2       	ldi	r24, 0x25	; 37
    1172:	8c 93       	st	X, r24
    1174:	ef 5f       	subi	r30, 0xFF	; 255
    1176:	81 e0       	ldi	r24, 0x01	; 1
    1178:	90 e0       	ldi	r25, 0x00	; 0
    117a:	8c 0f       	add	r24, r28
    117c:	9d 1f       	adc	r25, r29
    117e:	8e 0f       	add	r24, r30
    1180:	91 1d       	adc	r25, r1
    1182:	fc 01       	movw	r30, r24
    1184:	10 82       	st	Z, r1
        oled_str(7, 2, b);
    1186:	87 e0       	ldi	r24, 0x07	; 7
    1188:	62 e0       	ldi	r22, 0x02	; 2
    118a:	ae 01       	movw	r20, r28
    118c:	4f 5f       	subi	r20, 0xFF	; 255
    118e:	5f 4f       	sbci	r21, 0xFF	; 255
    1190:	0e 94 09 02 	call	0x412	; 0x412 <oled_str>
    }
    oled_str(7, 62, "[<]Temp[>]Main");
    1194:	87 e0       	ldi	r24, 0x07	; 7
    1196:	6e e3       	ldi	r22, 0x3E	; 62
    1198:	4c e6       	ldi	r20, 0x6C	; 108
    119a:	53 e0       	ldi	r21, 0x03	; 3
    119c:	0e 94 09 02 	call	0x412	; 0x412 <oled_str>
    11a0:	20 e0       	ldi	r18, 0x00	; 0
            led_r_off();
            break;

        case ST_HIGH:
        default:
            OCR1A = FAN_HIGH;
    11a2:	a6 ee       	ldi	r26, 0xE6	; 230
    11a4:	b0 e0       	ldi	r27, 0x00	; 0
            led_y_off();
            led_r_off();
            break;

        case ST_MEDIUM:
            OCR1A = FAN_MED;
    11a6:	46 e6       	ldi	r20, 0x66	; 102
    11a8:	50 e0       	ldi	r21, 0x00	; 0
    11aa:	ae c0       	rjmp	.+348    	; 0x1308 <__stack+0xa09>
static void draw_main(int16_t t10, uint16_t h10, State st)
{
    char buf[22]; uint8_t len, c;

    /* Header */
    oled_row(0, 0xFF);
    11ac:	80 e0       	ldi	r24, 0x00	; 0
    11ae:	6f ef       	ldi	r22, 0xFF	; 255
    11b0:	0e 94 c5 01 	call	0x38a	; 0x38a <oled_row>
    oled_str(0, 10, "  SYSTEM  319  ");
    11b4:	80 e0       	ldi	r24, 0x00	; 0
    11b6:	6a e0       	ldi	r22, 0x0A	; 10
    11b8:	40 e0       	ldi	r20, 0x00	; 0
    11ba:	51 e0       	ldi	r21, 0x01	; 1
    11bc:	0e 94 09 02 	call	0x412	; 0x412 <oled_str>

    /* Separator */
    oled_row(1, 0x01);
    11c0:	81 e0       	ldi	r24, 0x01	; 1
    11c2:	61 e0       	ldi	r22, 0x01	; 1
    11c4:	0e 94 c5 01 	call	0x38a	; 0x38a <oled_row>

    /* Temperature */
    oled_clr_row(2);
    11c8:	82 e0       	ldi	r24, 0x02	; 2
    11ca:	0e 94 d5 01 	call	0x3aa	; 0x3aa <oled_clr_row>
    strcpy(buf, "Temp: ");
    11ce:	c2 01       	movw	r24, r4
    11d0:	6b e7       	ldi	r22, 0x7B	; 123
    11d2:	73 e0       	ldi	r23, 0x03	; 3
    11d4:	0e 94 a8 0a 	call	0x1550	; 0x1550 <strcpy>
    fmt1(buf + 6, t10);
    11d8:	ce 01       	movw	r24, r28
    11da:	49 96       	adiw	r24, 0x19	; 25
    11dc:	b8 01       	movw	r22, r16
    11de:	0e 94 1d 02 	call	0x43a	; 0x43a <fmt1>
    len = (uint8_t)strlen(buf);
    11e2:	f2 01       	movw	r30, r4
    11e4:	01 90       	ld	r0, Z+
    11e6:	00 20       	and	r0, r0
    11e8:	e9 f7       	brne	.-6      	; 0x11e4 <__stack+0x8e5>
    11ea:	31 97       	sbiw	r30, 0x01	; 1
    11ec:	e4 19       	sub	r30, r4
    buf[len++] = ' '; buf[len++] = 'C'; buf[len] = '\0';
    11ee:	d2 01       	movw	r26, r4
    11f0:	ae 0f       	add	r26, r30
    11f2:	b1 1d       	adc	r27, r1
    11f4:	10 e2       	ldi	r17, 0x20	; 32
    11f6:	1c 93       	st	X, r17
    11f8:	ef 5f       	subi	r30, 0xFF	; 255
    11fa:	d2 01       	movw	r26, r4
    11fc:	ae 0f       	add	r26, r30
    11fe:	b1 1d       	adc	r27, r1
    1200:	83 e4       	ldi	r24, 0x43	; 67
    1202:	8c 93       	st	X, r24
    1204:	ef 5f       	subi	r30, 0xFF	; 255
    1206:	c2 01       	movw	r24, r4
    1208:	8e 0f       	add	r24, r30
    120a:	91 1d       	adc	r25, r1
    120c:	fc 01       	movw	r30, r24
    120e:	10 82       	st	Z, r1
    oled_str(2, 2, buf);
    1210:	82 e0       	ldi	r24, 0x02	; 2
    1212:	62 e0       	ldi	r22, 0x02	; 2
    1214:	a2 01       	movw	r20, r4
    1216:	0e 94 09 02 	call	0x412	; 0x412 <oled_str>

    /* Humidity */
    oled_clr_row(3);
    121a:	83 e0       	ldi	r24, 0x03	; 3
    121c:	0e 94 d5 01 	call	0x3aa	; 0x3aa <oled_clr_row>
    strcpy(buf, "Hum:  ");
    1220:	c2 01       	movw	r24, r4
    1222:	62 e8       	ldi	r22, 0x82	; 130
    1224:	73 e0       	ldi	r23, 0x03	; 3
    1226:	0e 94 a8 0a 	call	0x1550	; 0x1550 <strcpy>
    fmt1(buf + 6, (int16_t)h10);
    122a:	ce 01       	movw	r24, r28
    122c:	49 96       	adiw	r24, 0x19	; 25
    122e:	b6 01       	movw	r22, r12
    1230:	0e 94 1d 02 	call	0x43a	; 0x43a <fmt1>
    len = (uint8_t)strlen(buf);
    1234:	f2 01       	movw	r30, r4
    1236:	01 90       	ld	r0, Z+
    1238:	00 20       	and	r0, r0
    123a:	e9 f7       	brne	.-6      	; 0x1236 <__stack+0x937>
    123c:	31 97       	sbiw	r30, 0x01	; 1
    123e:	e4 19       	sub	r30, r4
    buf[len++] = ' '; buf[len++] = '%'; buf[len] = '\0';
    1240:	d2 01       	movw	r26, r4
    1242:	ae 0f       	add	r26, r30
    1244:	b1 1d       	adc	r27, r1
    1246:	1c 93       	st	X, r17
    1248:	ef 5f       	subi	r30, 0xFF	; 255
    124a:	d2 01       	movw	r26, r4
    124c:	ae 0f       	add	r26, r30
    124e:	b1 1d       	adc	r27, r1
    1250:	85 e2       	ldi	r24, 0x25	; 37
    1252:	8c 93       	st	X, r24
    1254:	ef 5f       	subi	r30, 0xFF	; 255
    1256:	c2 01       	movw	r24, r4
    1258:	8e 0f       	add	r24, r30
    125a:	91 1d       	adc	r25, r1
    125c:	fc 01       	movw	r30, r24
    125e:	10 82       	st	Z, r1
    oled_str(3, 2, buf);
    1260:	83 e0       	ldi	r24, 0x03	; 3
    1262:	62 e0       	ldi	r22, 0x02	; 2
    1264:	a2 01       	movw	r20, r4
    1266:	0e 94 09 02 	call	0x412	; 0x412 <oled_str>

    /* Separator */
    oled_row(4, 0x40);
    126a:	84 e0       	ldi	r24, 0x04	; 4
    126c:	60 e4       	ldi	r22, 0x40	; 64
    126e:	0e 94 c5 01 	call	0x38a	; 0x38a <oled_row>

    /* Status */
    oled_clr_row(5);
    1272:	85 e0       	ldi	r24, 0x05	; 5
    1274:	0e 94 d5 01 	call	0x3aa	; 0x3aa <oled_clr_row>
    switch (st) {
    1278:	81 14       	cp	r8, r1
    127a:	91 04       	cpc	r9, r1
    127c:	29 f0       	breq	.+10     	; 0x1288 <__stack+0x989>
    127e:	91 e0       	ldi	r25, 0x01	; 1
    1280:	89 16       	cp	r8, r25
    1282:	91 04       	cpc	r9, r1
    1284:	59 f4       	brne	.+22     	; 0x129c <__stack+0x99d>
    1286:	05 c0       	rjmp	.+10     	; 0x1292 <__stack+0x993>
        case ST_NORMAL: oled_str(5, 2, "[OK]  System Normal "); break;
    1288:	85 e0       	ldi	r24, 0x05	; 5
    128a:	62 e0       	ldi	r22, 0x02	; 2
    128c:	49 e8       	ldi	r20, 0x89	; 137
    128e:	53 e0       	ldi	r21, 0x03	; 3
    1290:	09 c0       	rjmp	.+18     	; 0x12a4 <__stack+0x9a5>
        case ST_MEDIUM: oled_str(5, 2, "[! ]  Medium Alert  "); break;
    1292:	85 e0       	ldi	r24, 0x05	; 5
    1294:	62 e0       	ldi	r22, 0x02	; 2
    1296:	4e e9       	ldi	r20, 0x9E	; 158
    1298:	53 e0       	ldi	r21, 0x03	; 3
    129a:	04 c0       	rjmp	.+8      	; 0x12a4 <__stack+0x9a5>
        default:        oled_str(5, 2, "[!!]  HIGH ALERT!!  "); break;
    129c:	85 e0       	ldi	r24, 0x05	; 5
    129e:	62 e0       	ldi	r22, 0x02	; 2
    12a0:	43 eb       	ldi	r20, 0xB3	; 179
    12a2:	53 e0       	ldi	r21, 0x03	; 3
    12a4:	0e 94 09 02 	call	0x412	; 0x412 <oled_str>
    }

    /* Humidity bar meter */
    oled_clr_row(6);
    12a8:	86 e0       	ldi	r24, 0x06	; 6
    12aa:	0e 94 d5 01 	call	0x3aa	; 0x3aa <oled_clr_row>
    {
        uint8_t pct = (h10 > 1000u) ? 100u : (uint8_t)(h10 / 10u);
    12ae:	e9 ee       	ldi	r30, 0xE9	; 233
    12b0:	ce 16       	cp	r12, r30
    12b2:	e3 e0       	ldi	r30, 0x03	; 3
    12b4:	de 06       	cpc	r13, r30
    12b6:	10 f0       	brcs	.+4      	; 0x12bc <__stack+0x9bd>
    12b8:	64 e6       	ldi	r22, 0x64	; 100
    12ba:	05 c0       	rjmp	.+10     	; 0x12c6 <__stack+0x9c7>
    12bc:	c6 01       	movw	r24, r12
    12be:	6a e0       	ldi	r22, 0x0A	; 10
    12c0:	70 e0       	ldi	r23, 0x00	; 0
    12c2:	0e 94 39 0a 	call	0x1472	; 0x1472 <__udivmodhi4>
        uint8_t bw  = (uint8_t)((uint16_t)pct * 116u / 100u);
    12c6:	84 e7       	ldi	r24, 0x74	; 116
    12c8:	68 9f       	mul	r22, r24
    12ca:	c0 01       	movw	r24, r0
    12cc:	11 24       	eor	r1, r1
    12ce:	64 e6       	ldi	r22, 0x64	; 100
    12d0:	70 e0       	ldi	r23, 0x00	; 0
    12d2:	0e 94 39 0a 	call	0x1472	; 0x1472 <__udivmodhi4>
    12d6:	06 2f       	mov	r16, r22
        oled_pos(6, 6);
    12d8:	86 e0       	ldi	r24, 0x06	; 6
    12da:	66 e0       	ldi	r22, 0x06	; 6
    12dc:	0e 94 9f 01 	call	0x33e	; 0x33e <oled_pos>
    12e0:	10 e0       	ldi	r17, 0x00	; 0
        for (c = 0; c < 116u; c++) oled_dat(c < bw ? 0x3C : 0x04);
    12e2:	10 17       	cp	r17, r16
    12e4:	10 f0       	brcs	.+4      	; 0x12ea <__stack+0x9eb>
    12e6:	84 e0       	ldi	r24, 0x04	; 4
    12e8:	01 c0       	rjmp	.+2      	; 0x12ec <__stack+0x9ed>
    12ea:	8c e3       	ldi	r24, 0x3C	; 60
    12ec:	0e 94 8d 01 	call	0x31a	; 0x31a <oled_dat>
    12f0:	1f 5f       	subi	r17, 0xFF	; 255
    12f2:	14 37       	cpi	r17, 0x74	; 116
    12f4:	b1 f7       	brne	.-20     	; 0x12e2 <__stack+0x9e3>
    }

    /* Navigation */
    oled_row(7, 0x80);
    12f6:	87 e0       	ldi	r24, 0x07	; 7
    12f8:	60 e8       	ldi	r22, 0x80	; 128
    12fa:	0e 94 c5 01 	call	0x38a	; 0x38a <oled_row>
    oled_str(7, 2, "[<]Info [M]Main[>]Graph");
    12fe:	87 e0       	ldi	r24, 0x07	; 7
    1300:	62 e0       	ldi	r22, 0x02	; 2
    1302:	48 ec       	ldi	r20, 0xC8	; 200
    1304:	53 e0       	ldi	r21, 0x03	; 3
    1306:	4a cf       	rjmp	.-364    	; 0x119c <__stack+0x89d>
 *  HIGH   : GRN+YLW+RED ON | Fan 90 %  | Buzzer continuous ON
 * ============================================================================ */

static void outputs_update(State st, uint8_t tick)
{
    switch (st) {
    1308:	81 14       	cp	r8, r1
    130a:	91 04       	cpc	r9, r1
    130c:	29 f0       	breq	.+10     	; 0x1318 <__stack+0xa19>
    130e:	f1 e0       	ldi	r31, 0x01	; 1
    1310:	8f 16       	cp	r8, r31
    1312:	91 04       	cpc	r9, r1
    1314:	d1 f4       	brne	.+52     	; 0x134a <__stack+0xa4b>
    1316:	08 c0       	rjmp	.+16     	; 0x1328 <__stack+0xa29>

        case ST_NORMAL:
            OCR1A = FAN_OFF;
    1318:	10 92 89 00 	sts	0x0089, r1
    131c:	10 92 88 00 	sts	0x0088, r1
    DDRB  |=  (1 << PB0);
    PORTB |=  (1 << PB0);   /* HIGH = OFF */
}

static inline void buz_on(void)  { PORTB &= ~(1 << PB0); }
static inline void buz_off(void) { PORTB |=  (1 << PB0); }
    1320:	28 9a       	sbi	0x05, 0	; 5
{
    DDRD  |=  (1 << LED_G) | (1 << LED_Y) | (1 << LED_R);
    PORTD &= ~((1 << LED_G) | (1 << LED_Y) | (1 << LED_R));
}

static inline void led_g_on(void)  { PORTD |=  (1 << LED_G); }
    1322:	5c 9a       	sbi	0x0b, 4	; 11
static inline void led_g_off(void) { PORTD &= ~(1 << LED_G); }
static inline void led_y_on(void)  { PORTD |=  (1 << LED_Y); }
static inline void led_y_off(void) { PORTD &= ~(1 << LED_Y); }
    1324:	5d 98       	cbi	0x0b, 5	; 11
    1326:	0f c0       	rjmp	.+30     	; 0x1346 <__stack+0xa47>
            led_y_off();
            led_r_off();
            break;

        case ST_MEDIUM:
            OCR1A = FAN_MED;
    1328:	50 93 89 00 	sts	0x0089, r21
    132c:	40 93 88 00 	sts	0x0088, r20
            /* 3-second cycle: ON 300 ms (3 ticks), OFF 2700 ms (27 ticks) */
            if ((tick % 30) < 3) buz_on(); else buz_off();
    1330:	89 a5       	ldd	r24, Y+41	; 0x29
    1332:	6e e1       	ldi	r22, 0x1E	; 30
    1334:	0e 94 2d 0a 	call	0x145a	; 0x145a <__udivmodqi4>
    1338:	93 30       	cpi	r25, 0x03	; 3
    133a:	10 f4       	brcc	.+4      	; 0x1340 <__stack+0xa41>
{
    DDRB  |=  (1 << PB0);
    PORTB |=  (1 << PB0);   /* HIGH = OFF */
}

static inline void buz_on(void)  { PORTB &= ~(1 << PB0); }
    133c:	28 98       	cbi	0x05, 0	; 5
    133e:	01 c0       	rjmp	.+2      	; 0x1342 <__stack+0xa43>
static inline void buz_off(void) { PORTB |=  (1 << PB0); }
    1340:	28 9a       	sbi	0x05, 0	; 5
{
    DDRD  |=  (1 << LED_G) | (1 << LED_Y) | (1 << LED_R);
    PORTD &= ~((1 << LED_G) | (1 << LED_Y) | (1 << LED_R));
}

static inline void led_g_on(void)  { PORTD |=  (1 << LED_G); }
    1342:	5c 9a       	sbi	0x0b, 4	; 11
static inline void led_g_off(void) { PORTD &= ~(1 << LED_G); }
static inline void led_y_on(void)  { PORTD |=  (1 << LED_Y); }
    1344:	5d 9a       	sbi	0x0b, 5	; 11
static inline void led_y_off(void) { PORTD &= ~(1 << LED_Y); }
static inline void led_r_on(void)  { PORTD |=  (1 << LED_R); }
static inline void led_r_off(void) { PORTD &= ~(1 << LED_R); }
    1346:	5e 98       	cbi	0x0b, 6	; 11
    1348:	08 c0       	rjmp	.+16     	; 0x135a <__stack+0xa5b>
            led_r_off();
            break;

        case ST_HIGH:
        default:
            OCR1A = FAN_HIGH;
    134a:	b0 93 89 00 	sts	0x0089, r27
    134e:	a0 93 88 00 	sts	0x0088, r26
{
    DDRB  |=  (1 << PB0);
    PORTB |=  (1 << PB0);   /* HIGH = OFF */
}

static inline void buz_on(void)  { PORTB &= ~(1 << PB0); }
    1352:	28 98       	cbi	0x05, 0	; 5
{
    DDRD  |=  (1 << LED_G) | (1 << LED_Y) | (1 << LED_R);
    PORTD &= ~((1 << LED_G) | (1 << LED_Y) | (1 << LED_R));
}

static inline void led_g_on(void)  { PORTD |=  (1 << LED_G); }
    1354:	5c 9a       	sbi	0x0b, 4	; 11
static inline void led_g_off(void) { PORTD &= ~(1 << LED_G); }
static inline void led_y_on(void)  { PORTD |=  (1 << LED_Y); }
    1356:	5d 9a       	sbi	0x0b, 5	; 11
static inline void led_y_off(void) { PORTD &= ~(1 << LED_Y); }
static inline void led_r_on(void)  { PORTD |=  (1 << LED_R); }
    1358:	5e 9a       	sbi	0x0b, 6	; 11
            uint8_t lp;
            for (lp = 0; lp < 20; lp++)
            {
                /* Drive outputs — fully tick-based, zero blocking */
                outputs_update(st, tick);
                tick++;
    135a:	89 a5       	ldd	r24, Y+41	; 0x29
    135c:	8f 5f       	subi	r24, 0xFF	; 255
    135e:	89 a7       	std	Y+41, r24	; 0x29
                if (tick >= 200) tick = 0;
    1360:	88 3c       	cpi	r24, 0xC8	; 200
    1362:	08 f0       	brcs	.+2      	; 0x1366 <__stack+0xa67>
    1364:	19 a6       	std	Y+41, r1	; 0x29
    PORTD |=  ((1 << BTN_R) | (1 << BTN_L) | (1 << BTN_M));
}

/* 30 ms debounce — returns 1 if confirmed pressed */
static uint8_t btn_right(void)
{ if(!(PIND&(1<<BTN_R))){ _delay_ms(30); return !(PIND&(1<<BTN_R)); } return 0; }
    1366:	4a 99       	sbic	0x09, 2	; 9
    1368:	18 c0       	rjmp	.+48     	; 0x139a <__stack+0xa9b>
    136a:	8c e2       	ldi	r24, 0x2C	; 44
    136c:	91 e0       	ldi	r25, 0x01	; 1
    136e:	e0 e9       	ldi	r30, 0x90	; 144
    1370:	f1 e0       	ldi	r31, 0x01	; 1
    1372:	31 97       	sbiw	r30, 0x01	; 1
    1374:	f1 f7       	brne	.-4      	; 0x1372 <__stack+0xa73>
		{
			// wait 1/10 ms
			_delay_loop_2(((F_CPU) / 4e3) / 10);
			__ticks --;
    1376:	01 97       	sbiw	r24, 0x01	; 1
		__ticks = 1;
	else if (__tmp > 65535)
	{
		//	__ticks = requested delay in 1/10 ms
		__ticks = (uint16_t) (__ms * 10.0);
		while(__ticks)
    1378:	d1 f7       	brne	.-12     	; 0x136e <__stack+0xa6f>
                outputs_update(st, tick);
                tick++;
                if (tick >= 200) tick = 0;

                /* RIGHT → next screen */
                if (btn_right()) {
    137a:	4a 99       	sbic	0x09, 2	; 9
    137c:	0e c0       	rjmp	.+28     	; 0x139a <__stack+0xa9b>

static uint8_t btn_main(void)
{ if(!(PIND&(1<<BTN_M))){ _delay_ms(30); return !(PIND&(1<<BTN_M)); } return 0; }

/* Block until release + 40 ms settle — prevents ghost presses */
static void rel_right(void){ while(!(PIND&(1<<BTN_R))); _delay_ms(40); }
    137e:	4a 9b       	sbis	0x09, 2	; 9
    1380:	fe cf       	rjmp	.-4      	; 0x137e <__stack+0xa7f>
    1382:	80 e9       	ldi	r24, 0x90	; 144
    1384:	91 e0       	ldi	r25, 0x01	; 1
    1386:	e0 e9       	ldi	r30, 0x90	; 144
    1388:	f1 e0       	ldi	r31, 0x01	; 1
    138a:	31 97       	sbiw	r30, 0x01	; 1
    138c:	f1 f7       	brne	.-4      	; 0x138a <__stack+0xa8b>
		{
			// wait 1/10 ms
			_delay_loop_2(((F_CPU) / 4e3) / 10);
			__ticks --;
    138e:	01 97       	sbiw	r24, 0x01	; 1
		__ticks = 1;
	else if (__tmp > 65535)
	{
		//	__ticks = requested delay in 1/10 ms
		__ticks = (uint16_t) (__ms * 10.0);
		while(__ticks)
    1390:	d1 f7       	brne	.-12     	; 0x1386 <__stack+0xa87>
                if (tick >= 200) tick = 0;

                /* RIGHT → next screen */
                if (btn_right()) {
                    rel_right();
                    sc = (uint8_t)((sc + 1) % 4);
    1392:	23 94       	inc	r2
    1394:	93 e0       	ldi	r25, 0x03	; 3
    1396:	29 22       	and	r2, r25
    1398:	82 cb       	rjmp	.-2300   	; 0xa9e <__stack+0x19f>
/* 30 ms debounce — returns 1 if confirmed pressed */
static uint8_t btn_right(void)
{ if(!(PIND&(1<<BTN_R))){ _delay_ms(30); return !(PIND&(1<<BTN_R)); } return 0; }

static uint8_t btn_left(void)
{ if(!(PIND&(1<<BTN_L))){ _delay_ms(30); return !(PIND&(1<<BTN_L)); } return 0; }
    139a:	4b 99       	sbic	0x09, 3	; 9
    139c:	19 c0       	rjmp	.+50     	; 0x13d0 <__stack+0xad1>
    139e:	8c e2       	ldi	r24, 0x2C	; 44
    13a0:	91 e0       	ldi	r25, 0x01	; 1
    13a2:	e0 e9       	ldi	r30, 0x90	; 144
    13a4:	f1 e0       	ldi	r31, 0x01	; 1
    13a6:	31 97       	sbiw	r30, 0x01	; 1
    13a8:	f1 f7       	brne	.-4      	; 0x13a6 <__stack+0xaa7>
		{
			// wait 1/10 ms
			_delay_loop_2(((F_CPU) / 4e3) / 10);
			__ticks --;
    13aa:	01 97       	sbiw	r24, 0x01	; 1
		__ticks = 1;
	else if (__tmp > 65535)
	{
		//	__ticks = requested delay in 1/10 ms
		__ticks = (uint16_t) (__ms * 10.0);
		while(__ticks)
    13ac:	d1 f7       	brne	.-12     	; 0x13a2 <__stack+0xaa3>
                    sc = (uint8_t)((sc + 1) % 4);
                    redraw = 1; break;
                }

                /* LEFT → previous screen */
                if (btn_left()) {
    13ae:	4b 99       	sbic	0x09, 3	; 9
    13b0:	0f c0       	rjmp	.+30     	; 0x13d0 <__stack+0xad1>
static uint8_t btn_main(void)
{ if(!(PIND&(1<<BTN_M))){ _delay_ms(30); return !(PIND&(1<<BTN_M)); } return 0; }

/* Block until release + 40 ms settle — prevents ghost presses */
static void rel_right(void){ while(!(PIND&(1<<BTN_R))); _delay_ms(40); }
static void rel_left(void) { while(!(PIND&(1<<BTN_L))); _delay_ms(40); }
    13b2:	4b 9b       	sbis	0x09, 3	; 9
    13b4:	fe cf       	rjmp	.-4      	; 0x13b2 <__stack+0xab3>
    13b6:	80 e9       	ldi	r24, 0x90	; 144
    13b8:	91 e0       	ldi	r25, 0x01	; 1
    13ba:	e0 e9       	ldi	r30, 0x90	; 144
    13bc:	f1 e0       	ldi	r31, 0x01	; 1
    13be:	31 97       	sbiw	r30, 0x01	; 1
    13c0:	f1 f7       	brne	.-4      	; 0x13be <__stack+0xabf>
		{
			// wait 1/10 ms
			_delay_loop_2(((F_CPU) / 4e3) / 10);
			__ticks --;
    13c2:	01 97       	sbiw	r24, 0x01	; 1
		__ticks = 1;
	else if (__tmp > 65535)
	{
		//	__ticks = requested delay in 1/10 ms
		__ticks = (uint16_t) (__ms * 10.0);
		while(__ticks)
    13c4:	d1 f7       	brne	.-12     	; 0x13ba <__stack+0xabb>
                }

                /* LEFT → previous screen */
                if (btn_left()) {
                    rel_left();
                    sc = (sc == 0) ? 3u : (uint8_t)(sc - 1);
    13c6:	22 20       	and	r2, r2
    13c8:	09 f4       	brne	.+2      	; 0x13cc <__stack+0xacd>
    13ca:	67 cb       	rjmp	.-2354   	; 0xa9a <__stack+0x19b>
    13cc:	2a 94       	dec	r2
    13ce:	67 cb       	rjmp	.-2354   	; 0xa9e <__stack+0x19f>

static uint8_t btn_left(void)
{ if(!(PIND&(1<<BTN_L))){ _delay_ms(30); return !(PIND&(1<<BTN_L)); } return 0; }

static uint8_t btn_main(void)
{ if(!(PIND&(1<<BTN_M))){ _delay_ms(30); return !(PIND&(1<<BTN_M)); } return 0; }
    13d0:	4f 99       	sbic	0x09, 7	; 9
    13d2:	16 c0       	rjmp	.+44     	; 0x1400 <__stack+0xb01>
    13d4:	8c e2       	ldi	r24, 0x2C	; 44
    13d6:	91 e0       	ldi	r25, 0x01	; 1
    13d8:	e0 e9       	ldi	r30, 0x90	; 144
    13da:	f1 e0       	ldi	r31, 0x01	; 1
    13dc:	31 97       	sbiw	r30, 0x01	; 1
    13de:	f1 f7       	brne	.-4      	; 0x13dc <__stack+0xadd>
		{
			// wait 1/10 ms
			_delay_loop_2(((F_CPU) / 4e3) / 10);
			__ticks --;
    13e0:	01 97       	sbiw	r24, 0x01	; 1
		__ticks = 1;
	else if (__tmp > 65535)
	{
		//	__ticks = requested delay in 1/10 ms
		__ticks = (uint16_t) (__ms * 10.0);
		while(__ticks)
    13e2:	d1 f7       	brne	.-12     	; 0x13d8 <__stack+0xad9>
                    sc = (sc == 0) ? 3u : (uint8_t)(sc - 1);
                    redraw = 1; break;
                }

                /* MAIN → System 319 main screen */
                if (btn_main()) {
    13e4:	4f 99       	sbic	0x09, 7	; 9
    13e6:	0c c0       	rjmp	.+24     	; 0x1400 <__stack+0xb01>
{ if(!(PIND&(1<<BTN_M))){ _delay_ms(30); return !(PIND&(1<<BTN_M)); } return 0; }

/* Block until release + 40 ms settle — prevents ghost presses */
static void rel_right(void){ while(!(PIND&(1<<BTN_R))); _delay_ms(40); }
static void rel_left(void) { while(!(PIND&(1<<BTN_L))); _delay_ms(40); }
static void rel_main(void) { while(!(PIND&(1<<BTN_M))); _delay_ms(40); }
    13e8:	4f 9b       	sbis	0x09, 7	; 9
    13ea:	fe cf       	rjmp	.-4      	; 0x13e8 <__stack+0xae9>
    13ec:	80 e9       	ldi	r24, 0x90	; 144
    13ee:	91 e0       	ldi	r25, 0x01	; 1
    13f0:	e0 e9       	ldi	r30, 0x90	; 144
    13f2:	f1 e0       	ldi	r31, 0x01	; 1
    13f4:	31 97       	sbiw	r30, 0x01	; 1
    13f6:	f1 f7       	brne	.-4      	; 0x13f4 <__stack+0xaf5>
		{
			// wait 1/10 ms
			_delay_loop_2(((F_CPU) / 4e3) / 10);
			__ticks --;
    13f8:	01 97       	sbiw	r24, 0x01	; 1
		__ticks = 1;
	else if (__tmp > 65535)
	{
		//	__ticks = requested delay in 1/10 ms
		__ticks = (uint16_t) (__ms * 10.0);
		while(__ticks)
    13fa:	d1 f7       	brne	.-12     	; 0x13f0 <__stack+0xaf1>
    13fc:	22 24       	eor	r2, r2
    13fe:	4f cb       	rjmp	.-2402   	; 0xa9e <__stack+0x19f>
    1400:	88 ee       	ldi	r24, 0xE8	; 232
    1402:	93 e0       	ldi	r25, 0x03	; 3
    1404:	e0 e9       	ldi	r30, 0x90	; 144
    1406:	f1 e0       	ldi	r31, 0x01	; 1
    1408:	31 97       	sbiw	r30, 0x01	; 1
    140a:	f1 f7       	brne	.-4      	; 0x1408 <__stack+0xb09>
		{
			// wait 1/10 ms
			_delay_loop_2(((F_CPU) / 4e3) / 10);
			__ticks --;
    140c:	01 97       	sbiw	r24, 0x01	; 1
		__ticks = 1;
	else if (__tmp > 65535)
	{
		//	__ticks = requested delay in 1/10 ms
		__ticks = (uint16_t) (__ms * 10.0);
		while(__ticks)
    140e:	d1 f7       	brne	.-12     	; 0x1404 <__stack+0xb05>
        }

        /* Step 5: Poll sub-loop (20 × 100 ms ≈ 2 s between reads) */
        {
            uint8_t lp;
            for (lp = 0; lp < 20; lp++)
    1410:	2f 5f       	subi	r18, 0xFF	; 255
    1412:	24 31       	cpi	r18, 0x14	; 20
    1414:	09 f0       	breq	.+2      	; 0x1418 <__stack+0xb19>
    1416:	78 cf       	rjmp	.-272    	; 0x1308 <__stack+0xa09>
    1418:	bb 24       	eor	r11, r11
    141a:	43 cb       	rjmp	.-2426   	; 0xaa2 <__stack+0x1a3>

0000141c <__mulsi3>:
    141c:	62 9f       	mul	r22, r18
    141e:	d0 01       	movw	r26, r0
    1420:	73 9f       	mul	r23, r19
    1422:	f0 01       	movw	r30, r0
    1424:	82 9f       	mul	r24, r18
    1426:	e0 0d       	add	r30, r0
    1428:	f1 1d       	adc	r31, r1
    142a:	64 9f       	mul	r22, r20
    142c:	e0 0d       	add	r30, r0
    142e:	f1 1d       	adc	r31, r1
    1430:	92 9f       	mul	r25, r18
    1432:	f0 0d       	add	r31, r0
    1434:	83 9f       	mul	r24, r19
    1436:	f0 0d       	add	r31, r0
    1438:	74 9f       	mul	r23, r20
    143a:	f0 0d       	add	r31, r0
    143c:	65 9f       	mul	r22, r21
    143e:	f0 0d       	add	r31, r0
    1440:	99 27       	eor	r25, r25
    1442:	72 9f       	mul	r23, r18
    1444:	b0 0d       	add	r27, r0
    1446:	e1 1d       	adc	r30, r1
    1448:	f9 1f       	adc	r31, r25
    144a:	63 9f       	mul	r22, r19
    144c:	b0 0d       	add	r27, r0
    144e:	e1 1d       	adc	r30, r1
    1450:	f9 1f       	adc	r31, r25
    1452:	bd 01       	movw	r22, r26
    1454:	cf 01       	movw	r24, r30
    1456:	11 24       	eor	r1, r1
    1458:	08 95       	ret

0000145a <__udivmodqi4>:
    145a:	99 1b       	sub	r25, r25
    145c:	79 e0       	ldi	r23, 0x09	; 9
    145e:	04 c0       	rjmp	.+8      	; 0x1468 <__udivmodqi4_ep>

00001460 <__udivmodqi4_loop>:
    1460:	99 1f       	adc	r25, r25
    1462:	96 17       	cp	r25, r22
    1464:	08 f0       	brcs	.+2      	; 0x1468 <__udivmodqi4_ep>
    1466:	96 1b       	sub	r25, r22

00001468 <__udivmodqi4_ep>:
    1468:	88 1f       	adc	r24, r24
    146a:	7a 95       	dec	r23
    146c:	c9 f7       	brne	.-14     	; 0x1460 <__udivmodqi4_loop>
    146e:	80 95       	com	r24
    1470:	08 95       	ret

00001472 <__udivmodhi4>:
    1472:	aa 1b       	sub	r26, r26
    1474:	bb 1b       	sub	r27, r27
    1476:	51 e1       	ldi	r21, 0x11	; 17
    1478:	07 c0       	rjmp	.+14     	; 0x1488 <__udivmodhi4_ep>

0000147a <__udivmodhi4_loop>:
    147a:	aa 1f       	adc	r26, r26
    147c:	bb 1f       	adc	r27, r27
    147e:	a6 17       	cp	r26, r22
    1480:	b7 07       	cpc	r27, r23
    1482:	10 f0       	brcs	.+4      	; 0x1488 <__udivmodhi4_ep>
    1484:	a6 1b       	sub	r26, r22
    1486:	b7 0b       	sbc	r27, r23

00001488 <__udivmodhi4_ep>:
    1488:	88 1f       	adc	r24, r24
    148a:	99 1f       	adc	r25, r25
    148c:	5a 95       	dec	r21
    148e:	a9 f7       	brne	.-22     	; 0x147a <__udivmodhi4_loop>
    1490:	80 95       	com	r24
    1492:	90 95       	com	r25
    1494:	bc 01       	movw	r22, r24
    1496:	cd 01       	movw	r24, r26
    1498:	08 95       	ret

0000149a <__divmodhi4>:
    149a:	97 fb       	bst	r25, 7
    149c:	09 2e       	mov	r0, r25
    149e:	07 26       	eor	r0, r23
    14a0:	0a d0       	rcall	.+20     	; 0x14b6 <__divmodhi4_neg1>
    14a2:	77 fd       	sbrc	r23, 7
    14a4:	04 d0       	rcall	.+8      	; 0x14ae <__divmodhi4_neg2>
    14a6:	e5 df       	rcall	.-54     	; 0x1472 <__udivmodhi4>
    14a8:	06 d0       	rcall	.+12     	; 0x14b6 <__divmodhi4_neg1>
    14aa:	00 20       	and	r0, r0
    14ac:	1a f4       	brpl	.+6      	; 0x14b4 <__divmodhi4_exit>

000014ae <__divmodhi4_neg2>:
    14ae:	70 95       	com	r23
    14b0:	61 95       	neg	r22
    14b2:	7f 4f       	sbci	r23, 0xFF	; 255

000014b4 <__divmodhi4_exit>:
    14b4:	08 95       	ret

000014b6 <__divmodhi4_neg1>:
    14b6:	f6 f7       	brtc	.-4      	; 0x14b4 <__divmodhi4_exit>
    14b8:	90 95       	com	r25
    14ba:	81 95       	neg	r24
    14bc:	9f 4f       	sbci	r25, 0xFF	; 255
    14be:	08 95       	ret

000014c0 <__divmodsi4>:
    14c0:	97 fb       	bst	r25, 7
    14c2:	09 2e       	mov	r0, r25
    14c4:	05 26       	eor	r0, r21
    14c6:	0e d0       	rcall	.+28     	; 0x14e4 <__divmodsi4_neg1>
    14c8:	57 fd       	sbrc	r21, 7
    14ca:	04 d0       	rcall	.+8      	; 0x14d4 <__divmodsi4_neg2>
    14cc:	14 d0       	rcall	.+40     	; 0x14f6 <__udivmodsi4>
    14ce:	0a d0       	rcall	.+20     	; 0x14e4 <__divmodsi4_neg1>
    14d0:	00 1c       	adc	r0, r0
    14d2:	38 f4       	brcc	.+14     	; 0x14e2 <__divmodsi4_exit>

000014d4 <__divmodsi4_neg2>:
    14d4:	50 95       	com	r21
    14d6:	40 95       	com	r20
    14d8:	30 95       	com	r19
    14da:	21 95       	neg	r18
    14dc:	3f 4f       	sbci	r19, 0xFF	; 255
    14de:	4f 4f       	sbci	r20, 0xFF	; 255
    14e0:	5f 4f       	sbci	r21, 0xFF	; 255

000014e2 <__divmodsi4_exit>:
    14e2:	08 95       	ret

000014e4 <__divmodsi4_neg1>:
    14e4:	f6 f7       	brtc	.-4      	; 0x14e2 <__divmodsi4_exit>
    14e6:	90 95       	com	r25
    14e8:	80 95       	com	r24
    14ea:	70 95       	com	r23
    14ec:	61 95       	neg	r22
    14ee:	7f 4f       	sbci	r23, 0xFF	; 255
    14f0:	8f 4f       	sbci	r24, 0xFF	; 255
    14f2:	9f 4f       	sbci	r25, 0xFF	; 255
    14f4:	08 95       	ret

000014f6 <__udivmodsi4>:
    14f6:	a1 e2       	ldi	r26, 0x21	; 33
    14f8:	1a 2e       	mov	r1, r26
    14fa:	aa 1b       	sub	r26, r26
    14fc:	bb 1b       	sub	r27, r27
    14fe:	fd 01       	movw	r30, r26
    1500:	0d c0       	rjmp	.+26     	; 0x151c <__udivmodsi4_ep>

00001502 <__udivmodsi4_loop>:
    1502:	aa 1f       	adc	r26, r26
    1504:	bb 1f       	adc	r27, r27
    1506:	ee 1f       	adc	r30, r30
    1508:	ff 1f       	adc	r31, r31
    150a:	a2 17       	cp	r26, r18
    150c:	b3 07       	cpc	r27, r19
    150e:	e4 07       	cpc	r30, r20
    1510:	f5 07       	cpc	r31, r21
    1512:	20 f0       	brcs	.+8      	; 0x151c <__udivmodsi4_ep>
    1514:	a2 1b       	sub	r26, r18
    1516:	b3 0b       	sbc	r27, r19
    1518:	e4 0b       	sbc	r30, r20
    151a:	f5 0b       	sbc	r31, r21

0000151c <__udivmodsi4_ep>:
    151c:	66 1f       	adc	r22, r22
    151e:	77 1f       	adc	r23, r23
    1520:	88 1f       	adc	r24, r24
    1522:	99 1f       	adc	r25, r25
    1524:	1a 94       	dec	r1
    1526:	69 f7       	brne	.-38     	; 0x1502 <__udivmodsi4_loop>
    1528:	60 95       	com	r22
    152a:	70 95       	com	r23
    152c:	80 95       	com	r24
    152e:	90 95       	com	r25
    1530:	9b 01       	movw	r18, r22
    1532:	ac 01       	movw	r20, r24
    1534:	bd 01       	movw	r22, r26
    1536:	cf 01       	movw	r24, r30
    1538:	08 95       	ret

0000153a <strcat>:
    153a:	fb 01       	movw	r30, r22
    153c:	dc 01       	movw	r26, r24
    153e:	0d 90       	ld	r0, X+
    1540:	00 20       	and	r0, r0
    1542:	e9 f7       	brne	.-6      	; 0x153e <strcat+0x4>
    1544:	11 97       	sbiw	r26, 0x01	; 1
    1546:	01 90       	ld	r0, Z+
    1548:	0d 92       	st	X+, r0
    154a:	00 20       	and	r0, r0
    154c:	e1 f7       	brne	.-8      	; 0x1546 <strcat+0xc>
    154e:	08 95       	ret

00001550 <strcpy>:
    1550:	fb 01       	movw	r30, r22
    1552:	dc 01       	movw	r26, r24
    1554:	01 90       	ld	r0, Z+
    1556:	0d 92       	st	X+, r0
    1558:	00 20       	and	r0, r0
    155a:	e1 f7       	brne	.-8      	; 0x1554 <strcpy+0x4>
    155c:	08 95       	ret

0000155e <_exit>:
    155e:	f8 94       	cli

00001560 <__stop_program>:
    1560:	ff cf       	rjmp	.-2      	; 0x1560 <__stop_program>
